(lp1
(lp2
S'1.479289940828402'
p3
aa(lp4
S'0.000061424272870'
p5
aa(lp6
S'10.000000000000000'
p7
aa(lp8
S'0.170532060027285'
p9
aa(lp10
S'0.000230228812906'
p11
aa(lp12
S'0.000568740541134'
p13
aa(lp14
S'0.107123727905731'
p15
aa(lp16
S'0.122850122850123'
p17
aa(lp18
S'9.803921568627452'
p19
aa(lp20
S'0.000176074472459'
p21
aa(lp22
S'0.004268906989055'
p23
aa(lp24
S'0.304692260816575'
p25
aa(lp26
S'0.019062142584827'
p27
aa(lp28
S'0.000001000000001'
p29
aa(lp30
S'83.333333333333329'
p31
aa(lp32
S'0.358037952022914'
p33
aa(lp34
S'0.002500231271393'
p35
aa(lp36
S'0.009381215054974'
p37
aa(lp38
S'0.000001000000001'
p39
aa(lp40
S'1.811594202898551'
p41
aa(lp42
S'0.358037952022914'
p43
aa(lp44
S'2.109704641350211'
p45
aa(lp46
S'0.002909437925687'
p47
aa(lp48
S'0.075114549688275'
p49
aa(lp50
S'0.166805671392827'
p51
aa(lp52
S'0.023589912953221'
p53
aa(lp54
S'0.241604252234839'
p55
aa(lp56
S'2.109704641350211'
p57
aa(lp58
S'0.000441593516701'
p59
aa(lp60
S'0.000001000000001'
p61
aa(lp62
S'0.000116402334426'
p63
aa(lp64
S'0.008147170487690'
p65
aa(lp66
S'0.000057437056310'
p67
aa(lp68
S'2.232142857142857'
p69
aa(lp70
S'0.000183533047878'
p71
aa(lp72
S'0.000001000000001'
p73
aa(lp74
S'6.493506493506493'
p75
aa(lp76
S'0.033129037601458'
p77
aa(lp78
S'0.023276925583669'
p79
aa(lp80
S'8.403361344537815'
p81
aa(lp82
S'0.000493724270794'
p83
aa(lp84
S'0.206568890725057'
p85
aa(lp86
S'0.091141086401750'
p87
aa(lp88
S'0.000085878640256'
p89
aa(lp90
S'0.005174563913626'
p91
aa(lp92
S'0.000236815812476'
p93
aa(lp94
S'26.315789473684209'
p95
aa(lp96
S'0.000001000000001'
p97
aa(lp98
S'1.071811361200429'
p99
aa(lp100
S'6.944444444444445'
p101
aa(lp102
S'0.017248219121376'
p103
aa(lp104
S'3.436426116838488'
p105
aa(lp106
S'0.000001000000001'
p107
aa(lp108
S'0.000001000000001'
p109
aa(lp110
S'0.575373993095512'
p111
aa(lp112
S'0.026267402153927'
p113
aa(lp114
S'0.023779516324638'
p115
aa(lp116
S'0.008762859496311'
p117
aa(lp118
S'10.000000000000000'
p119
aa(lp120
S'0.001005069570916'
p121
aa(lp122
S'0.000293276805207'
p123
aa(lp124
S'0.000001000000001'
p125
aa(lp126
S'1.869158878504673'
p127
aa(lp128
S'0.009625009625010'
p129
aa(lp130
S'0.010669967243201'
p131
aa(lp132
S'0.001399901446938'
p133
aa(lp134
S'0.000104076575381'
p135
aa(lp136
S'0.168491996630160'
p137
aa(lp138
S'6.849315068493151'
p139
aa(lp140
S'0.000001000000001'
p141
aa(lp142
S'0.000001000000001'
p143
aa(lp144
S'0.241604252234839'
p145
aa(lp146
S'0.000001000000001'
p147
aa(lp148
S'0.000001000000001'
p149
aa(lp150
S'1.305483028720627'
p151
aa(lp152
S'6.944444444444445'
p153
aa(lp154
S'14.285714285714286'
p155
aa(lp156
S'0.000001000000001'
p157
aa(lp158
S'0.003433747557747'
p159
aa(lp160
S'0.038051750380518'
p161
aa(lp162
S'6.944444444444445'
p163
aa(lp164
S'14.285714285714286'
p165
aa(lp166
S'6.849315068493151'
p167
aa(lp168
S'0.007309727785737'
p169
aa(lp170
S'1.114827201783724'
p171
aa(lp172
S'0.019044716995505'
p173
aa(lp174
S'0.038299502106473'
p175
aa(lp176
S'0.000001000000001'
p177
aa(lp178
S'2.754820936639118'
p179
aa(lp180
S'0.007334389485419'
p181
aa(lp182
S'0.007143418411447'
p183
aa(lp184
S'1.865671641791045'
p185
aa(lp186
S'0.001967965458270'
p187
aa(lp188
S'0.000477130878431'
p189
aa(lp190
S'1.626016260162602'
p191
aa(lp192
S'0.000551867547374'
p193
aa(lp194
S'0.106473594548552'
p195
aa(lp196
S'0.045846323124885'
p197
aa(lp198
S'1.953125000000000'
p199
aa(lp200
S'0.027867573291718'
p201
aa(lp202
S'0.000001000000001'
p203
aa(lp204
S'0.000001000000001'
p205
aa(lp206
S'0.000162221368577'
p207
aa(lp208
S'0.001855962465015'
p209
aa(lp210
S'0.032594524119948'
p211
aa(lp212
S'0.033135624109480'
p213
aa(lp214
S'0.000001000000001'
p215
aa(lp216
S'0.012101409814243'
p217
aa(lp218
S'0.000961411814021'
p219
aa(lp220
S'0.000131499787957'
p221
aa(lp222
S'0.010300676754463'
p223
aa(lp224
S'2.237136465324385'
p225
aa(lp226
S'9.259259259259260'
p227
aa(lp228
S'0.628930817610063'
p229
aa(lp230
S'14.285714285714286'
p231
aa(lp232
S'0.184774575018477'
p233
aa(lp234
S'0.019702104184727'
p235
aa(lp236
S'14.285714285714286'
p237
aa(lp238
S'0.115915150110119'
p239
aa(lp240
S'0.001431581840671'
p241
aa(lp242
S'0.000604741536491'
p243
aa(lp244
S'0.006222194568024'
p245
aa(lp246
S'4.291845493562231'
p247
aa(lp248
S'0.327868852459016'
p249
aa(lp250
S'0.241604252234839'
p251
aa(lp252
S'0.000001000000001'
p253
aa(lp254
S'0.000001000000001'
p255
aa(lp256
S'0.010318000784168'
p257
aa(lp258
S'0.001298439924431'
p259
aa(lp260
S'0.000001000000001'
p261
aa(lp262
S'0.022223703802476'
p263
aa(lp264
S'0.327868852459016'
p265
aa(lp266
S'0.006606416151366'
p267
aa(lp268
S'0.012991568472062'
p269
aa(lp270
S'0.023589912953221'
p271
aa(lp272
S'0.165070980521624'
p273
aa(lp274
S'0.000566809880630'
p275
aa(lp276
S'0.221141088014153'
p277
aa(lp278
S'0.013560241372296'
p279
aa(lp280
S'0.000309548551297'
p281
aa(lp282
S'0.006960492246012'
p283
aa(lp284
S'0.012048047613884'
p285
aa(lp286
S'14.705882352941176'
p287
aa(lp288
S'0.000123927592578'
p289
aa(lp290
S'0.000001000000001'
p291
aa(lp292
S'2.109704641350211'
p293
aa(lp294
S'10.869565217391305'
p295
aa(lp296
S'0.221141088014153'
p297
aa(lp298
S'0.000216589968549'
p299
aa(lp300
S'6.944444444444445'
p301
aa(lp302
S'0.221141088014153'
p303
aa(lp304
S'6.944444444444445'
p305
aa(lp306
S'0.000001000000001'
p307
aa(lp308
S'0.074704915583445'
p309
aa(lp310
S'0.000001000000001'
p311
aa(lp312
S'0.000323891465266'
p313
aa(lp314
S'0.000001000000001'
p315
aa(lp316
S'5.917159763313609'
p317
aa(lp318
S'0.000752781338852'
p319
aa(lp320
S'0.013843704575344'
p321
aa(lp322
S'0.028516839193544'
p323
aa(lp324
S'0.221141088014153'
p325
aa(lp326
S'0.000069340390521'
p327
aa(lp328
S'0.038946876460508'
p329
aa(lp330
S'0.002172349896053'
p331
aa(lp332
S'0.000614042036090'
p333
aa(lp334
S'1.865671641791045'
p335
aa(lp336
S'0.000305693355327'
p337
aa(lp338
S'0.170532060027285'
p339
aa(lp340
S'0.059959227725147'
p341
aa(lp342
S'0.000001000000001'
p343
aa(lp344
S'0.011752952929424'
p345
aa(lp346
S'0.007334604664809'
p347
aa(lp348
S'0.064981480278121'
p349
aa(lp350
S'0.000001000000001'
p351
aa(lp352
S'0.628930817610063'
p353
aa(lp354
S'0.000200222527317'
p355
aa(lp356
S'0.358037952022914'
p357
aa(lp358
S'0.736919675755343'
p359
aa(lp360
S'0.013845621322257'
p361
aa(lp362
S'0.001808792540540'
p363
aa(lp364
S'0.003930601303387'
p365
aa(lp366
S'0.000693963489193'
p367
aa(lp368
S'0.000162714600218'
p369
aa(lp370
S'0.503524672708963'
p371
aa(lp372
S'0.018862230270107'
p373
aa(lp374
S'0.000561324411269'
p375
aa(lp376
S'0.009503444998812'
p377
aa(lp378
S'0.364431486880466'
p379
aa(lp380
S'0.000001000000001'
p381
aa(lp382
S'166.666666666666657'
p383
aa(lp384
S'0.358037952022914'
p385
aa(lp386
S'0.221141088014153'
p387
aa(lp388
S'0.171703296703297'
p389
aa(lp390
S'0.325839035516455'
p391
aa(lp392
S'1.865671641791045'
p393
aa(lp394
S'0.019062142584827'
p395
aa(lp396
S'83.333333333333329'
p397
aa(lp398
S'0.001015816259155'
p399
aa(lp400
S'6.849315068493151'
p401
aa(lp402
S'9.803921568627452'
p403
aa(lp404
S'0.688705234159780'
p405
aa(lp406
S'0.012236756769986'
p407
aa(lp408
S'0.006332921693423'
p409
aa(lp410
S'0.010437105999249'
p411
aa(lp412
S'1.114827201783724'
p413
aa(lp414
S'0.688705234159780'
p415
aa(lp416
S'0.000990651224395'
p417
aa(lp418
S'0.264270613107822'
p419
aa(lp420
S'0.423728813559322'
p421
aa(lp422
S'0.236294896030246'
p423
aa(lp424
S'0.001707253779860'
p425
aa(lp426
S'0.688705234159780'
p427
aa(lp428
S'1.531393568147014'
p429
aa(lp430
S'0.000876472583499'
p431
aa(lp432
S'0.000001000000001'
p433
aa(lp434
S'0.030205092578609'
p435
aa(lp436
S'1.114827201783724'
p437
aa(lp438
S'0.000234371191468'
p439
aa(lp440
S'7.633587786259542'
p441
aa(lp442
S'0.000112623025169'
p443
aa(lp444
S'0.243131534159981'
p445
aa(lp446
S'0.021383056066373'
p447
aa(lp448
S'0.014575347257648'
p449
aa(lp450
S'0.846023688663283'
p451
aa(lp452
S'0.009019979254048'
p453
aa(lp454
S'0.185048112509252'
p455
aa(lp456
S'0.001819253523894'
p457
aa(lp458
S'0.000001000000001'
p459
aa(lp460
S'0.002186059933019'
p461
aa(lp462
S'0.016746211169723'
p463
aa(lp464
S'0.000602394760129'
p465
aa(lp466
S'1.085776330076004'
p467
aa(lp468
S'9.708737864077669'
p469
aa(lp470
S'0.019062142584827'
p471
aa(lp472
S'0.002625684975568'
p473
aa(lp474
S'0.002565714359020'
p475
aa(lp476
S'0.032664793885151'
p477
aa(lp478
S'0.545553737043099'
p479
aa(lp480
S'0.000001000000001'
p481
aa(lp482
S'0.008157604927193'
p483
aa(lp484
S'0.012661433274247'
p485
aa(lp486
S'0.044774782842303'
p487
aa(lp488
S'6.410256410256411'
p489
aa(lp490
S'0.115915150110119'
p491
aa(lp492
S'0.000001000000001'
p493
aa(lp494
S'26.315789473684209'
p495
aa(lp496
S'0.219683655536028'
p497
aa(lp498
S'0.010437105999249'
p499
aa(lp500
S'0.003516582444517'
p501
aa(lp502
S'0.009120010214411'
p503
aa(lp504
S'0.000123098452049'
p505
aa(lp506
S'0.068700192360539'
p507
aa(lp508
S'0.038242380205744'
p509
aa(lp510
S'0.327868852459016'
p511
aa(lp512
S'0.032594524119948'
p513
aa(lp514
S'0.142734798743934'
p515
aa(lp516
S'0.000382236988462'
p517
aa(lp518
S'1.179245283018868'
p519
aa(lp520
S'0.236294896030246'
p521
aa(lp522
S'0.156054931335830'
p523
aa(lp524
S'0.141362736782584'
p525
aa(lp526
S'0.000001000000001'
p527
aa(lp528
S'0.170532060027285'
p529
aa(lp530
S'0.004415439910278'
p531
aa(lp532
S'0.000001000000001'
p533
aa(lp534
S'0.000001000000001'
p535
aa(lp536
S'0.850340136054422'
p537
aa(lp538
S'0.001803888461969'
p539
aa(lp540
S'0.000205728256426'
p541
aa(lp542
S'0.082345191040843'
p543
aa(lp544
S'0.015880325864287'
p545
aa(lp546
S'0.000072856719247'
p547
aa(lp548
S'0.712758374910905'
p549
aa(lp550
S'0.000081444095022'
p551
aa(lp552
S'0.000001000000001'
p553
aa(lp554
S'0.057517542850569'
p555
aa(lp556
S'0.000196537519897'
p557
aa(lp558
S'0.000001000000001'
p559
aa(lp560
S'0.004159958733209'
p561
aa(lp562
S'0.003358364342231'
p563
aa(lp564
S'6.849315068493151'
p565
aa(lp566
S'0.056756910153811'
p567
aa(lp568
S'0.078610172156277'
p569
aa(lp570
S'0.850340136054422'
p571
aa(lp572
S'10.000000000000000'
p573
aa(lp574
S'1.626016260162602'
p575
aa(lp576
S'0.393545848091303'
p577
aa(lp578
S'0.736919675755343'
p579
aa(lp580
S'0.005152673722395'
p581
aa(lp582
S'0.000300460455648'
p583
aa(lp584
S'1.953125000000000'
p585
aa(lp586
S'0.156054931335830'
p587
aa(lp588
S'0.000001000000001'
p589
aa(lp590
S'0.141622999575131'
p591
aa(lp592
S'0.002745578246234'
p593
aa(lp594
S'83.333333333333329'
p595
aa(lp596
S'0.000001000000001'
p597
aa(lp598
S'1.626016260162602'
p599
aa(lp600
S'0.096366965404259'
p601
aa(lp602
S'0.000001000000001'
p603
aa(lp604
S'0.736919675755343'
p605
aa(lp606
S'0.000001000000001'
p607
aa(lp608
S'6.944444444444445'
p609
aa(lp610
S'0.014027016032879'
p611
aa(lp612
S'0.099373944151843'
p613
aa(lp614
S'0.004200180607766'
p615
aa(lp616
S'9.259259259259260'
p617
aa(lp618
S'0.036780932764455'
p619
aa(lp620
S'1.490312965722802'
p621
aa(lp622
S'1.305483028720627'
p623
aa(lp624
S'0.022345869366048'
p625
aa(lp626
S'0.105174589819100'
p627
aa(lp628
S'0.000362406553470'
p629
aa.