(lp1
(lp2
I93
aI65
aa(lp3
I95
aI22
aa(lp4
I95
aI73
aa(lp5
I94
aI27
aa(lp6
I61
aI3
aa(lp7
I64
aI5
aa(lp8
I91
aI59
aa(lp9
I87
aI63
aa(lp10
I94
aI63
aa(lp11
I89
aI17
aa(lp12
I97
aI18
aa(lp13
I63
aI4
aa(lp14
I91
aI56
aa(lp15
I60
aI2
aa(lp16
I92
aI60
aa(lp17
I93
aI63
aa(lp18
I73
aI11
aa(lp19
I48
aI30
aa(lp20
I69
aI12
aa(lp21
I92
aI57
aa(lp22
I93
aI63
aa(lp23
I93
aI64
aa(lp24
I88
aI41
aa(lp25
I93
aI52
aa(lp26
I90
aI49
aa(lp27
I76
aI7
aa(lp28
I94
aI64
aa(lp29
I94
aI74
aa(lp30
I89
aI50
aa(lp31
I67
aI6
aa(lp32
I68
aI10
aa(lp33
I91
aI14
aa(lp34
I66
aI8
aa(lp35
I95
aI66
aa(lp36
I73
aI7
aa(lp37
I68
aI7
aa(lp38
I91
aI50
aa(lp39
I95
aI56
aa(lp40
I86
aI10
aa(lp41
I90
aI56
aa(lp42
I70
aI6
aa(lp43
I90
aI50
aa(lp44
I93
aI61
aa(lp45
I66
aI7
aa(lp46
I84
aI11
aa(lp47
I79
aI12
aa(lp48
I95
aI81
aa(lp49
I70
aI6
aa(lp50
I94
aI65
aa(lp51
I94
aI69
aa(lp52
I93
aI60
aa(lp53
I86
aI46
aa(lp54
I88
aI11
aa(lp55
I68
aI10
aa(lp56
I62
aI4
aa(lp57
I91
aI51
aa(lp58
I90
aI52
aa(lp59
I92
aI54
aa(lp60
I94
aI68
aa(lp61
I63
aI6
aa(lp62
I81
aI10
aa(lp63
I76
aI7
aa(lp64
I88
aI50
aa(lp65
I85
aI11
aa(lp66
I95
aI52
aa(lp67
I68
aI10
aa(lp68
I60
aI3
aa(lp69
I93
aI60
aa(lp70
I90
aI59
aa(lp71
I68
aI10
aa(lp72
I68
aI10
aa(lp73
I94
aI64
aa(lp74
I62
aI5
aa(lp75
I64
aI7
aa(lp76
I94
aI24
aa(lp77
I94
aI69
aa(lp78
I94
aI64
aa(lp79
I62
aI4
aa(lp80
I96
aI16
aa(lp81
I82
aI9
aa(lp82
I94
aI69
aa(lp83
I94
aI64
aa(lp84
I92
aI61
aa(lp85
I87
aI12
aa(lp86
I93
aI50
aa(lp87
I80
aI10
aa(lp88
I92
aI47
aa(lp89
I61
aI4
aa(lp90
I93
aI63
aa(lp91
I86
aI38
aa(lp92
I90
aI47
aa(lp93
I94
aI59
aa(lp94
I92
aI61
aa(lp95
I57
aI13
aa(lp96
I92
aI54
aa(lp97
I50
aI6
aa(lp98
I93
aI46
aa(lp99
I90
aI33
aa(lp100
I90
aI11
aa(lp101
I91
aI28
aa(lp102
I70
aI20
aa(lp103
I68
aI10
aa(lp104
I60
aI2
aa(lp105
I81
aI9
aa(lp106
I92
aI55
aa(lp107
I92
aI61
aa(lp108
I68
aI10
aa(lp109
I93
aI53
aa(lp110
I65
aI5
aa(lp111
I81
aI15
aa(lp112
I50
aI5
aa(lp113
I94
aI65
aa(lp114
I93
aI56
aa(lp115
I94
aI63
aa(lp116
I94
aI64
aa(lp117
I94
aI60
aa(lp118
I95
aI23
aa(lp119
I94
aI64
aa(lp120
I92
aI53
aa(lp121
I95
aI54
aa(lp122
I89
aI39
aa(lp123
I93
aI19
aa(lp124
I85
aI11
aa(lp125
I93
aI51
aa(lp126
I94
aI64
aa(lp127
I68
aI10
aa(lp128
I68
aI10
aa(lp129
I80
aI21
aa(lp130
I91
aI15
aa(lp131
I68
aI10
aa(lp132
I89
aI21
aa(lp133
I93
aI51
aa(lp134
I93
aI47
aa(lp135
I94
aI25
aa(lp136
I76
aI7
aa(lp137
I94
aI61
aa(lp138
I76
aI11
aa(lp139
I81
aI9
aa(lp140
I93
aI52
aa(lp141
I60
aI3
aa(lp142
I80
aI8
aa(lp143
I95
aI55
aa(lp144
I94
aI64
aa(lp145
I93
aI12
aa(lp146
I68
aI10
aa(lp147
I93
aI64
aa(lp148
I91
aI60
aa(lp149
I88
aI11
aa(lp150
I92
aI46
aa(lp151
I94
aI59
aa(lp152
I92
aI29
aa(lp153
I96
aI25
aa(lp154
I62
aI5
aa(lp155
I88
aI44
aa(lp156
I89
aI10
aa(lp157
I60
aI3
aa(lp158
I68
aI10
aa(lp159
I93
aI65
aa(lp160
I67
aI8
aa(lp161
I94
aI54
aa(lp162
I87
aI13
aa(lp163
I92
aI29
aa(lp164
I64
aI7
aa(lp165
I93
aI46
aa(lp166
I89
aI10
aa(lp167
I92
aI48
aa(lp168
I78
aI8
aa(lp169
I83
aI9
aa(lp170
I96
aI59
aa(lp171
I94
aI39
aa(lp172
I74
aI12
aa(lp173
I70
aI6
aa(lp174
I78
aI9
aa(lp175
I91
aI48
aa(lp176
I63
aI6
aa(lp177
I94
aI63
aa(lp178
I44
aI9
aa(lp179
I93
aI63
aa(lp180
I90
aI51
aa(lp181
I66
aI5
aa(lp182
I67
aI11
aa(lp183
I54
aI10
aa(lp184
I64
aI9
aa(lp185
I73
aI8
aa(lp186
I92
aI58
aa(lp187
I92
aI60
aa(lp188
I90
aI11
aa(lp189
I94
aI44
aa(lp190
I95
aI65
aa(lp191
I68
aI10
aa(lp192
I92
aI69
aa(lp193
I93
aI63
aa(lp194
I91
aI14
aa(lp195
I95
aI62
aa(lp196
I95
aI65
aa(lp197
I94
aI59
aa(lp198
I91
aI56
aa(lp199
I92
aI60
aa(lp200
I91
aI50
aa(lp201
I92
aI61
aa(lp202
I94
aI63
aa(lp203
I84
aI11
aa(lp204
I93
aI51
aa(lp205
I94
aI15
aa(lp206
I93
aI55
aa(lp207
I93
aI50
aa(lp208
I84
aI11
aa(lp209
I78
aI8
aa(lp210
I95
aI64
aa(lp211
I93
aI45
aa(lp212
I94
aI51
aa(lp213
I78
aI37
aa(lp214
I85
aI11
aa(lp215
I95
aI62
aa(lp216
I90
aI50
aa(lp217
I68
aI10
aa(lp218
I93
aI52
aa(lp219
I93
aI50
aa(lp220
I66
aI9
aa(lp221
I91
aI60
aa(lp222
I80
aI9
aa(lp223
I94
aI53
aa(lp224
I95
aI27
aa(lp225
I92
aI48
aa(lp226
I93
aI51
aa(lp227
I90
aI56
aa(lp228
I89
aI12
aa(lp229
I50
aI5
aa(lp230
I62
aI4
aa(lp231
I90
aI12
aa(lp232
I69
aI6
aa(lp233
I82
aI12
aa(lp234
I91
aI53
aa(lp235
I90
aI58
aa(lp236
I91
aI56
aa(lp237
I68
aI6
aa(lp238
I90
aI11
aa(lp239
I61
aI6
aa(lp240
I92
aI50
aa(lp241
I61
aI3
aa(lp242
I71
aI6
aa(lp243
I96
aI37
aa(lp244
I93
aI56
aa(lp245
I92
aI61
aa(lp246
I92
aI50
aa(lp247
I60
aI2
aa(lp248
I95
aI80
aa(lp249
I92
aI50
aa(lp250
I93
aI55
aa(lp251
I46
aI10
aa(lp252
I83
aI42
aa(lp253
I66
aI5
aa(lp254
I77
aI10
aa(lp255
I90
aI46
aa(lp256
I93
aI51
aa(lp257
I92
aI55
aa(lp258
I79
aI37
aa(lp259
I66
aI10
aa(lp260
I88
aI12
aa(lp261
I94
aI25
aa(lp262
I93
aI23
aa(lp263
I93
aI23
aa(lp264
I60
aI3
aa(lp265
I96
aI59
aa(lp266
I75
aI8
aa(lp267
I52
aI12
aa(lp268
I60
aI2
aa(lp269
I93
aI20
aa(lp270
I93
aI55
aa(lp271
I91
aI33
aa(lp272
I93
aI58
aa(lp273
I90
aI49
aa(lp274
I82
aI9
aa(lp275
I94
aI64
aa(lp276
I68
aI10
aa(lp277
I68
aI10
aa(lp278
I92
aI48
aa(lp279
I73
aI11
aa(lp280
I62
aI5
aa(lp281
I90
aI49
aa(lp282
I94
aI15
aa(lp283
I90
aI59
aa(lp284
I93
aI21
aa(lp285
I92
aI35
aa(lp286
I93
aI19
aa(lp287
I95
aI73
aa(lp288
I92
aI54
aa(lp289
I93
aI49
aa(lp290
I83
aI12
aa(lp291
I92
aI12
aa(lp292
I92
aI16
aa(lp293
I91
aI11
aa(lp294
I76
aI8
aa(lp295
I60
aI2
aa(lp296
I94
aI60
aa(lp297
I88
aI11
aa(lp298
I92
aI61
aa(lp299
I62
aI4
aa(lp300
I92
aI54
aa(lp301
I71
aI7
aa(lp302
I68
aI10
aa(lp303
I90
aI49
aa(lp304
I68
aI10
aa(lp305
I94
aI69
aa(lp306
I83
aI40
aa(lp307
I88
aI11
aa(lp308
I72
aI9
aa(lp309
I96
aI23
aa(lp310
I93
aI49
aa(lp311
I93
aI63
aa(lp312
I93
aI35
aa(lp313
I61
aI3
aa(lp314
I92
aI55
aa(lp315
I74
aI8
aa.