(lp1
F0.025999999999999995
aF0.025999999999999995
aF0.026000000000000009
aF-0.13200000000000001
aF-0.13200000000000001
aF0.025999999999999995
aF-0.079000000000000001
aF-0.079000000000000001
aF-0.23699999999999999
aF0.13100000000000001
aF-0.13200000000000001
aF-0.079000000000000001
aF-0.026000000000000002
aF-0.026000000000000002
aF-0.026000000000000002
aF-0.13200000000000001
aF0
aF-0.079000000000000001
aF-0.02700000000000001
aF-0.026000000000000002
aF-0.079000000000000001
aF0.025999999999999995
aF-0.026000000000000002
aF-0.185
aF-0.13200000000000001
aF-0.079000000000000001
aF-0.079000000000000001
aF-0.079000000000000001
aF0.078000000000000014
aF-0.078
aF-0.184
aF-1.3877787807814457e-17
aF-0.184
aF-0.13200000000000001
aF-0.026000000000000002
aF-0.13200000000000001
aF0.23699999999999999
aF0.184
aF-0.02700000000000001
aF-0.079999999999999988
aF-0.02700000000000001
aF-0.13200000000000001
aF-0.185
aF0.13100000000000001
aF0.025999999999999995
aF-0.079000000000000001
aF0.025999999999999995
aF0.025999999999999995
aF-0.13200000000000001
aF-0.026000000000000009
aF-0.02700000000000001
aF-0.185
aF0.026000000000000009
aF0.033999999999999989
aF0.24200000000000005
aF0.13800000000000001
aF-0.20599999999999999
aF-0.17199999999999999
aF-0.17199999999999999
aF0.31
aF0.033999999999999989
aF-0.11799999999999999
aF-0.11799999999999999
aF-0.17699999999999999
aF0.058999999999999997
aF0
aF0
aF0
aF0.23599999999999999
aF0.111
aF-0.08299999999999999
aF0.25000000000000006
aF0.19400000000000001
aF-0.222
aF0.111
aF-0.33300000000000002
aF-0.027999999999999997
aF-0.027999999999999997
aF0.056000000000000001
aF-0.222
aF-0.19400000000000001
aF-0.13900000000000001
aF-0.16600000000000001
aF0.027000000000000003
aF-0.055
aF0.028000000000000011
aF-0.222
aF-0.111
aF-0.111
aF-0.30499999999999999
a.