(lp1
S'0.6486000'
p2
aF0
aS'0.1974000'
p3
aF0
aF0
aS'0.4650000'
p4
aS'0.5115000'
p5
aF0
aS'0.0935000'
p6
aS'0.0248000'
p7
aF0
aF0
aF0
aF0
aF0
aF0
aS'0.6175000'
p8
aS'0.5612000'
p9
aF0
aS'0.4263000'
p10
aS'0.6110000'
p11
aF0
aF0
aF0
aF0
aF0
aF0
aS'0.4386000'
p12
aS'0.4410000'
p13
aS'0.0497000'
p14
aS'0.4550000'
p15
aS'0.0120000'
p16
aF0
aF0
aF0
aF0
aS'0.0990000'
p17
aF0
aS'0.5520000'
p18
aF0
aS'0.5520000'
p19
aF0
aF0
aF0
aS'0.3600000'
p20
aF0
aS'0.4929000'
p21
aS'0.4929000'
p22
aS'0.4836000'
p23
aF0
aF0
aS'0.4005000'
p24
aF0
aS'0.0483000'
p25
aS'0.0810000'
p26
aF0
aS'0.0560000'
p27
aF0
aF0
aF0
aS'0.5922000'
p28
aS'0.0860000'
p29
aF0
aF0
aF0
aS'0.0420000'
p30
aF0
aS'0.5358000'
p31
aS'0.5487000'
p32
aS'0.5922000'
p33
aS'0.0177000'
p34
aS'0.0252000'
p35
aS'0.3320000'
p36
aS'0.0252000'
p37
aS'0.5336000'
p38
aS'0.0680000'
p39
aS'0.4940000'
p40
aF0
aS'0.0594000'
p41
aF0
aF0
aS'0.2418000'
p42
aF0
aS'0.4982000'
p43
aS'0.0180000'
p44
aS'0.0120000'
p45
aS'0.4590000'
p46
aS'0.0680000'
p47
aS'0.0244000'
p48
aF0
a.