(lp1
(lp2
I75
aI7
aa(lp3
I95
aI80
aa(lp4
I92
aI54
aa(lp5
I94
aI57
aa(lp6
I64
aI5
aa(lp7
I92
aI35
aa(lp8
I91
aI13
aa(lp9
I94
aI48
aa(lp10
I68
aI10
aa(lp11
I65
aI7
aa(lp12
I94
aI64
aa(lp13
I94
aI72
aa(lp14
I92
aI61
aa(lp15
I61
aI4
aa(lp16
I90
aI56
aa(lp17
I60
aI3
aa(lp18
I92
aI60
aa(lp19
I93
aI50
aa(lp20
I94
aI64
aa(lp21
I94
aI63
aa(lp22
I94
aI65
aa(lp23
I61
aI4
aa(lp24
I85
aI11
aa(lp25
I76
aI14
aa(lp26
I60
aI2
aa(lp27
I73
aI8
aa(lp28
I89
aI17
aa(lp29
I85
aI11
aa(lp30
I94
aI50
aa(lp31
I91
aI28
aa(lp32
I63
aI6
aa(lp33
I92
aI55
aa(lp34
I96
aI50
aa(lp35
I94
aI64
aa(lp36
I66
aI9
aa(lp37
I91
aI53
aa(lp38
I76
aI8
aa(lp39
I93
aI50
aa(lp40
I44
aI21
aa(lp41
I93
aI54
aa(lp42
I68
aI10
aa(lp43
I92
aI50
aa(lp44
I93
aI58
aa(lp45
I94
aI64
aa(lp46
I94
aI64
aa(lp47
I91
aI51
aa(lp48
I94
aI64
aa(lp49
I90
aI49
aa(lp50
I94
aI69
aa(lp51
I68
aI6
aa(lp52
I94
aI59
aa(lp53
I94
aI44
aa(lp54
I63
aI5
aa(lp55
I70
aI18
aa(lp56
I94
aI15
aa(lp57
I88
aI11
aa(lp58
I92
aI62
aa(lp59
I94
aI63
aa(lp60
I94
aI65
aa(lp61
I91
aI43
aa(lp62
I94
aI64
aa(lp63
I87
aI12
aa(lp64
I96
aI49
aa(lp65
I87
aI46
aa(lp66
I61
aI3
aa(lp67
I94
aI72
aa(lp68
I94
aI74
aa(lp69
I92
aI60
aa(lp70
I90
aI59
aa(lp71
I90
aI49
aa(lp72
I91
aI57
aa(lp73
I93
aI58
aa(lp74
I93
aI52
aa(lp75
I93
aI63
aa(lp76
I92
aI62
aa(lp77
I83
aI11
aa(lp78
I93
aI28
aa(lp79
I76
aI7
aa(lp80
I93
aI52
aa(lp81
I89
aI12
aa(lp82
I91
aI59
aa(lp83
I66
aI9
aa(lp84
I88
aI11
aa(lp85
I68
aI10
aa(lp86
I91
aI51
aag37
a(lp87
I19
aI34
aa(lp88
I93
aI19
aa(lp89
I87
aI13
aag18
a(lp90
I92
aI62
aa(lp91
I94
aI69
aa(lp92
I95
aI55
aa(lp93
I75
aI8
aa(lp94
I94
aI54
aa(lp95
I94
aI64
aa(lp96
I87
aI9
aa(lp97
I92
aI60
aa(lp98
I92
aI62
aa(lp99
I92
aI60
aag57
a(lp100
I95
aI16
aa(lp101
I94
aI69
aa(lp102
I94
aI12
aa(lp103
I94
aI65
aa(lp104
I92
aI62
aa(lp105
I78
aI9
aa(lp106
I94
aI48
aa(lp107
I93
aI50
aa(lp108
I94
aI64
aa(lp109
I92
aI62
aa(lp110
I68
aI10
aa(lp111
I50
aI6
aa(lp112
I68
aI10
aa(lp113
I89
aI17
aa(lp114
I91
aI59
aa(lp115
I92
aI61
aa(lp116
I90
aI49
aag112
a(lp117
I70
aI7
aa(lp118
I73
aI8
aa(lp119
I93
aI26
aa(lp120
I92
aI60
aa(lp121
I94
aI63
aa(lp122
I50
aI9
aa(lp123
I94
aI60
aa(lp124
I92
aI60
aa(lp125
I94
aI63
aa(lp126
I80
aI21
aa(lp127
I94
aI65
aag47
a(lp128
I93
aI68
aa(lp129
I92
aI69
aa(lp130
I94
aI64
aa(lp131
I78
aI9
aa(lp132
I84
aI43
aa(lp133
I91
aI58
aa(lp134
I95
aI53
aa(lp135
I70
aI6
aa(lp136
I68
aI10
aag46
ag41
a(lp137
I94
aI64
aa(lp138
I93
aI50
aag67
a(lp139
I91
aI11
aa(lp140
I75
aI8
aa(lp141
I92
aI47
aa(lp142
I92
aI60
aa(lp143
I90
aI50
aa(lp144
I92
aI60
aa(lp145
I75
aI8
aa(lp146
I94
aI15
aa(lp147
I85
aI46
aa(lp148
I92
aI54
aa(lp149
I60
aI2
aa(lp150
I63
aI6
aa(lp151
I94
aI69
aag6
ag128
a(lp152
I73
aI11
aag99
a(lp153
I60
aI2
aag38
a(lp154
I88
aI12
aa(lp155
I92
aI50
aa(lp156
I67
aI7
aa(lp157
I92
aI51
aa(lp158
I94
aI74
aa(lp159
I92
aI15
aa(lp160
I92
aI61
aag53
a(lp161
I63
aI5
aa(lp162
I92
aI60
aa(lp163
I90
aI11
aag72
a(lp164
I88
aI10
aa(lp165
I68
aI10
aa(lp166
I60
aI2
aa(lp167
I94
aI64
aa(lp168
I85
aI9
aa(lp169
I69
aI6
aa(lp170
I93
aI19
aa(lp171
I82
aI9
aag100
a(lp172
I92
aI61
aa(lp173
I94
aI63
aa(lp174
I93
aI63
aa(lp175
I93
aI63
aa(lp176
I60
aI3
aa(lp177
I92
aI60
aag123
a(lp178
I68
aI10
aa(lp179
I60
aI3
aag77
a(lp180
I50
aI18
aag166
a(lp181
I93
aI50
aa(lp182
I96
aI42
aa(lp183
I70
aI19
aa(lp184
I92
aI62
aa(lp185
I94
aI65
aa(lp186
I92
aI61
aag12
a(lp187
I94
aI64
aa(lp188
I60
aI2
aa(lp189
I93
aI63
aa(lp190
I88
aI21
aa(lp191
I95
aI65
aa(lp192
I92
aI60
aa(lp193
I77
aI10
aa(lp194
I93
aI14
aa(lp195
I94
aI64
aa(lp196
I92
aI58
aa(lp197
I60
aI3
aa(lp198
I95
aI23
aa(lp199
I60
aI2
aa(lp200
I94
aI58
aa(lp201
I92
aI60
aa(lp202
I94
aI69
aa(lp203
I63
aI4
aa(lp204
I94
aI64
aag169
a(lp205
I95
aI55
aag129
a(lp206
I93
aI45
aag29
a(lp207
I86
aI11
aa(lp208
I94
aI69
aa(lp209
I91
aI28
aa(lp210
I90
aI11
aa(lp211
I95
aI48
aa(lp212
I62
aI4
aa(lp213
I74
aI12
aa(lp214
I92
aI62
aa(lp215
I93
aI46
aa(lp216
I89
aI45
aa(lp217
I68
aI10
aag90
a(lp218
I93
aI55
aa(lp219
I66
aI5
aa(lp220
I91
aI53
aa(lp221
I95
aI52
aag212
a(lp222
I76
aI10
aag162
a(lp223
I94
aI64
aag33
a(lp224
I93
aI49
aa(lp225
I87
aI49
aa(lp226
I92
aI55
aag136
a(lp227
I94
aI65
aa(lp228
I94
aI65
aag62
ag160
a(lp229
I69
aI7
aa(lp230
I92
aI58
aa(lp231
I90
aI11
aag165
a(lp232
I88
aI11
aa(lp233
I68
aI10
aa(lp234
I86
aI11
aa(lp235
I84
aI10
aa(lp236
I92
aI48
aa(lp237
I95
aI63
aa(lp238
I90
aI49
aag49
ag166
a(lp239
I56
aI7
aa(lp240
I93
aI59
aag168
a(lp241
I60
aI3
aa(lp242
I91
aI56
aa(lp243
I91
aI33
aa(lp244
I93
aI63
aa(lp245
I68
aI10
aa(lp246
I93
aI53
aa(lp247
I95
aI27
aag147
a(lp248
I86
aI16
aa(lp249
I62
aI4
aa(lp250
I95
aI62
aa(lp251
I64
aI5
aa(lp252
I84
aI10
aag157
ag21
a(lp253
I66
aI7
aa(lp254
I74
aI12
aa(lp255
I60
aI2
aa(lp256
I93
aI23
aa(lp257
I94
aI59
aag203
a(lp258
I92
aI49
aa(lp259
I93
aI61
aa(lp260
I93
aI51
aag81
a(lp261
I63
aI6
aa(lp262
I94
aI64
aa(lp263
I91
aI51
aa(lp264
I75
aI8
aag153
ag173
a(lp265
I94
aI69
aa(lp266
I93
aI55
aag84
a(lp267
I82
aI8
aa(lp268
I92
aI61
aag194
a(lp269
I66
aI7
aag98
a(lp270
I68
aI10
aa(lp271
I46
aI10
aa(lp272
I85
aI11
aa(lp273
I93
aI60
aa(lp274
I92
aI49
aag200
a(lp275
I63
aI4
aa(lp276
I91
aI22
aa(lp277
I61
aI5
aa(lp278
I94
aI60
aa(lp279
I93
aI51
aa(lp280
I76
aI12
aa(lp281
I93
aI53
aa(lp282
I92
aI46
aa(lp283
I68
aI10
aa(lp284
I71
aI6
aa(lp285
I92
aI50
aa(lp286
I89
aI12
aa(lp287
I94
aI69
aag167
a(lp288
I61
aI4
aa(lp289
I62
aI4
aa(lp290
I66
aI9
aa(lp291
I94
aI63
aa(lp292
I93
aI45
aag226
ag47
a(lp293
I90
aI48
aa(lp294
I90
aI47
aag26
a(lp295
I93
aI63
aa(lp296
I91
aI15
aa(lp297
I70
aI6
aa(lp298
I91
aI60
aa(lp299
I93
aI63
aa(lp300
I68
aI10
aag276
ag234
a(lp301
I92
aI62
aag135
a(lp302
I60
aI2
aa(lp303
I62
aI5
aa(lp304
I95
aI52
aa(lp305
I50
aI6
aa(lp306
I87
aI12
aag237
a(lp307
I93
aI50
aa(lp308
I64
aI14
aa(lp309
I87
aI12
aa(lp310
I94
aI64
aag151
a(lp311
I94
aI65
aa(lp312
I93
aI50
aa(lp313
I91
aI49
aa(lp314
I93
aI50
aa(lp315
I94
aI63
aa(lp316
I92
aI60
aa(lp317
I60
aI2
aa(lp318
I93
aI53
aa(lp319
I63
aI6
aa(lp320
I93
aI51
aag100
a(lp321
I92
aI62
aa(lp322
I90
aI13
aa(lp323
I94
aI24
aa(lp324
I92
aI17
aa(lp325
I94
aI63
aag200
ag15
a(lp326
I94
aI52
aag277
a(lp327
I95
aI65
aa(lp328
I90
aI50
aa(lp329
I91
aI58
aa(lp330
I92
aI16
aa(lp331
I95
aI73
aa(lp332
I93
aI20
aag326
a(lp333
I92
aI61
aa(lp334
I91
aI45
aag115
a(lp335
I61
aI6
aa(lp336
I89
aI45
aa(lp337
I92
aI50
aag28
a(lp338
I78
aI8
aa(lp339
I59
aI3
aa(lp340
I62
aI4
aag300
a(lp341
I57
aI13
aag11
a(lp342
I90
aI56
aag12
ag224
a(lp343
I59
aI3
aag299
a(lp344
I94
aI63
aa(lp345
I86
aI49
aa(lp346
I93
aI63
aa(lp347
I91
aI42
aag11
ag332
a(lp348
I88
aI41
aa(lp349
I76
aI8
aa(lp350
I91
aI28
aa(lp351
I94
aI65
aa(lp352
I68
aI10
aa(lp353
I96
aI25
aag14
ag231
a(lp354
I90
aI51
aag253
ag185
a(lp355
I94
aI63
aa(lp356
I94
aI65
aag2
a(lp357
I89
aI10
aag31
ag262
a(lp358
I94
aI21
aag214
a(lp359
I93
aI55
aa(lp360
I94
aI65
aag98
a(lp361
I89
aI12
aa(lp362
I84
aI9
aa(lp363
I68
aI10
aa(lp364
I67
aI11
aa(lp365
I66
aI10
aag9
ag254
a(lp366
I94
aI27
aa(lp367
I92
aI61
aa(lp368
I93
aI50
aag142
a(lp369
I94
aI65
aa(lp370
I94
aI69
aa(lp371
I92
aI25
aag123
a(lp372
I70
aI10
aa(lp373
I82
aI9
aa(lp374
I68
aI10
aa(lp375
I91
aI15
aa(lp376
I92
aI54
aa(lp377
I63
aI6
aa(lp378
I94
aI69
aag74
a(lp379
I90
aI20
aag329
ag114
ag23
a(lp380
I67
aI6
aa(lp381
I68
aI10
aa(lp382
I94
aI69
aag52
ag274
a(lp383
I83
aI42
aa(lp384
I60
aI2
aag58
ag170
a(lp385
I93
aI51
aag215
a(lp386
I92
aI16
aag26
ag86
a(lp387
I93
aI65
aa(lp388
I86
aI46
aag216
ag78
ag7
a(lp389
I68
aI10
aa(lp390
I83
aI40
aa(lp391
I92
aI60
aag58
a(lp392
I67
aI5
aa(lp393
I94
aI63
aag271
a(lp394
I92
aI60
aag183
a(lp395
I95
aI73
aag153
ag32
ag229
ag167
a(lp396
I94
aI68
aag100
a(lp397
I92
aI60
aa(lp398
I90
aI40
aag17
ag364
ag147
ag230
ag259
ag297
a(lp399
I60
aI3
aa(lp400
I90
aI52
aa(lp401
I87
aI12
aa(lp402
I92
aI60
aa(lp403
I93
aI63
aa(lp404
I95
aI72
aa(lp405
I62
aI5
aag32
a(lp406
I85
aI10
aag130
a(lp407
I91
aI58
aa(lp408
I67
aI6
aag82
a(lp409
I94
aI65
aag15
ag268
a(lp410
I60
aI14
aag162
a(lp411
I75
aI8
aa(lp412
I92
aI16
aag249
a(lp413
I93
aI63
aa(lp414
I92
aI54
aa(lp415
I93
aI52
aag257
a(lp416
I90
aI46
aag413
a(lp417
I91
aI57
aag325
ag375
a(lp418
I91
aI50
aag18
a(lp419
I60
aI2
aag187
ag92
a(lp420
I94
aI64
aag52
ag9
a(lp421
I94
aI14
aag219
a(lp422
I63
aI7
aag52
ag291
ag271
a(lp423
I92
aI12
aag271
a(lp424
I95
aI62
aag416
ag422
a(lp425
I90
aI18
aa(lp426
I95
aI81
aa(lp427
I94
aI50
aag256
ag210
a(lp428
I93
aI55
aag311
a(lp429
I93
aI54
aa(lp430
I93
aI50
aa(lp431
I94
aI65
aa(lp432
I60
aI2
aa(lp433
I94
aI65
aag302
ag337
a(lp434
I65
aI10
aag151
a(lp435
I62
aI5
aag309
a(lp436
I80
aI10
aag350
a(lp437
I93
aI63
aag62
a(lp438
I91
aI52
aag123
ag109
a(lp439
I92
aI60
aag281
ag315
a(lp440
I86
aI14
aag138
ag8
ag66
a(lp441
I93
aI52
aa(lp442
I78
aI8
aag234
ag204
a(lp443
I92
aI16
aag29
a(lp444
I93
aI65
aa(lp445
I92
aI54
aag312
a(lp446
I94
aI25
aa(lp447
I94
aI64
aa(lp448
I94
aI64
aa(lp449
I92
aI61
aag2
a(lp450
I66
aI8
aa(lp451
I92
aI61
aa(lp452
I93
aI55
aag386
a(lp453
I92
aI57
aa(lp454
I93
aI51
aa(lp455
I95
aI58
aag248
a(lp456
I93
aI48
aag405
ag301
a(lp457
I80
aI8
aa(lp458
I94
aI64
aag239
a(lp459
I92
aI60
aa(lp460
I93
aI62
aag349
ag423
a(lp461
I93
aI63
aag179
ag429
a(lp462
I89
aI11
aa(lp463
I92
aI60
aag168
a(lp464
I68
aI10
aa(lp465
I91
aI33
aa(lp466
I86
aI17
aa(lp467
I92
aI16
aag146
ag128
ag72
a(lp468
I91
aI13
aag378
a(lp469
I94
aI64
aa(lp470
I92
aI58
aa(lp471
I92
aI12
aa(lp472
I96
aI25
aa(lp473
I93
aI46
aa(lp474
I70
aI25
aa(lp475
I88
aI10
aag95
a(lp476
I94
aI65
aa(lp477
I62
aI5
aa(lp478
I91
aI14
aa(lp479
I94
aI65
aag125
ag149
a(lp480
I61
aI4
aa(lp481
I94
aI63
aag337
ag138
ag183
a(lp482
I68
aI10
aag356
a(lp483
I68
aI10
aag128
ag32
ag139
ag436
a(lp484
I66
aI7
aa(lp485
I92
aI62
aag104
a(lp486
I79
aI9
aa(lp487
I76
aI7
aa(lp488
I91
aI53
aa(lp489
I93
aI73
aag303
ag391
ag202
ag326
a(lp490
I93
aI63
aag23
a(lp491
I97
aI18
aag327
ag414
ag125
a(lp492
I78
aI37
aag46
a(lp493
I95
aI65
aa(lp494
I68
aI10
aag79
a(lp495
I63
aI6
aa(lp496
I92
aI50
aa(lp497
I68
aI10
aa(lp498
I94
aI58
aa(lp499
I68
aI10
aa(lp500
I91
aI17
aa(lp501
I96
aI25
aa(lp502
I93
aI25
aa(lp503
I94
aI53
aa(lp504
I91
aI49
aag375
ag466
a(lp505
I91
aI51
aa(lp506
I81
aI15
aa(lp507
I93
aI50
aa(lp508
I68
aI10
aag254
ag419
ag234
ag337
a(lp509
I93
aI46
aa(lp510
I48
aI30
aa(lp511
I89
aI50
aa(lp512
I94
aI64
aa(lp513
I68
aI7
aag223
ag326
ag50
ag292
a(lp514
I68
aI10
aag403
a(lp515
I92
aI46
aag232
a(lp516
I92
aI61
aa(lp517
I94
aI63
aa(lp518
I94
aI53
aa(lp519
I92
aI47
aa(lp520
I68
aI10
aa(lp521
I68
aI10
aag54
ag322
ag409
ag211
ag374
ag347
ag440
ag39
ag232
ag191
a(lp522
I92
aI62
aag119
a(lp523
I94
aI69
aag326
ag192
ag260
a(lp524
I92
aI58
aag444
a(lp525
I93
aI53
aa(lp526
I93
aI60
aa(lp527
I94
aI65
aa(lp528
I79
aI37
aa(lp529
I60
aI2
aag66
ag465
ag303
a(lp530
I71
aI11
aag394
ag501
a(lp531
I94
aI64
aa(lp532
I83
aI43
aag352
a(lp533
I60
aI2
aa(lp534
I68
aI10
aa(lp535
I93
aI14
aa(lp536
I69
aI9
aag55
a(lp537
I92
aI49
aag63
a(lp538
I89
aI20
aag446
a(lp539
I94
aI69
aa(lp540
I93
aI50
aa(lp541
I93
aI63
aa(lp542
I94
aI65
aag358
a(lp543
I92
aI16
aag492
ag519
ag433
a(lp544
I94
aI69
aa(lp545
I50
aI4
aag277
ag17
ag418
ag516
ag422
ag130
ag322
a(lp546
I82
aI11
aa(lp547
I93
aI47
aag321
a(lp548
I36
aI9
aag373
ag111
ag104
ag433
a(lp549
I93
aI51
aag195
a(lp550
I82
aI9
aa(lp551
I90
aI51
aa(lp552
I64
aI4
aag233
ag175
a(lp553
I87
aI12
aa(lp554
I93
aI63
aa(lp555
I93
aI50
aa(lp556
I93
aI63
aag164
ag252
a(lp557
I94
aI49
aa(lp558
I73
aI11
aa(lp559
I68
aI10
aa(lp560
I94
aI39
aag365
ag85
ag321
a(lp561
I92
aI60
aag195
ag192
ag47
a(lp562
I60
aI2
aag139
ag515
a(lp563
I91
aI60
aag386
a(lp564
I76
aI11
aag335
a(lp565
I67
aI6
aa(lp566
I74
aI8
aa(lp567
I95
aI53
aag49
ag94
a(lp568
I76
aI8
aag249
a(lp569
I50
aI5
aa(lp570
I87
aI46
aag291
ag494
a(lp571
I78
aI11
aag333
a(lp572
I91
aI52
aag567
a(lp573
I61
aI4
aag245
ag502
ag160
ag138
ag417
a(lp574
I50
aI5
aag440
a(lp575
I60
aI2
aa(lp576
I93
aI61
aag243
a(lp577
I93
aI60
aag92
a(lp578
I94
aI65
aa(lp579
I92
aI62
aag27
ag408
a(lp580
I70
aI20
aa(lp581
I93
aI52
aa(lp582
I66
aI6
aag81
ag214
a(lp583
I92
aI55
aa(lp584
I91
aI50
aa(lp585
I92
aI60
aa(lp586
I65
aI5
aa(lp587
I90
aI47
aag206
ag573
ag265
ag413
ag344
ag82
ag40
a(lp588
I94
aI64
aag256
a(lp589
I94
aI69
aag584
ag201
ag237
ag545
ag274
ag25
ag383
a(lp590
I73
aI7
aa(lp591
I70
aI6
aa(lp592
I86
aI38
aag169
ag19
ag347
ag470
ag164
ag374
ag279
ag181
ag89
ag166
ag586
ag308
a(lp593
I74
aI7
aa(lp594
I94
aI69
aa(lp595
I94
aI65
aag187
a(lp596
I92
aI50
aa(lp597
I93
aI49
aag572
a(lp598
I90
aI49
aa(lp599
I86
aI11
aag33
ag540
ag388
a(lp600
I87
aI49
aag351
a(lp601
I92
aI62
aag185
ag198
a(lp602
I79
aI9
aa(lp603
I70
aI20
aag456
ag540
ag316
a(lp604
I64
aI7
aa(lp605
I93
aI61
aag25
ag357
a(lp606
I92
aI60
aag601
ag392
a(lp607
I90
aI56
aa(lp608
I64
aI5
aag298
ag93
a(lp609
I92
aI60
aa(lp610
I95
aI62
aa(lp611
I90
aI50
aa(lp612
I87
aI11
aa(lp613
I93
aI56
aa(lp614
I93
aI57
aa(lp615
I70
aI20
aa(lp616
I87
aI49
aag43
ag183
ag52
ag275
ag227
a(lp617
I94
aI60
aag320
ag398
a(lp618
I78
aI8
aa(lp619
I90
aI40
aag223
ag124
ag110
ag223
a(lp620
I92
aI62
aag430
a(lp621
I91
aI50
aa(lp622
I73
aI11
aag289
ag277
ag588
ag371
ag62
ag441
ag140
ag186
ag240
ag485
a(lp623
I90
aI11
aag450
a(lp624
I94
aI69
aa(lp625
I92
aI47
aag484
a(lp626
I92
aI16
aag16
ag193
ag471
a(lp627
I78
aI11
aa(lp628
I78
aI8
aag493
a(lp629
I94
aI63
aag480
a(lp630
I68
aI10
aa(lp631
I92
aI62
aag78
ag550
ag217
a(lp632
I93
aI63
aag235
a(lp633
I91
aI60
aa(lp634
I70
aI6
aa(lp635
I93
aI54
aag468
a(lp636
I92
aI60
aag130
ag543
ag161
ag35
ag231
a(lp637
I90
aI49
aa(lp638
I91
aI49
aa(lp639
I94
aI64
aag24
a(lp640
I95
aI81
aag472
a(lp641
I94
aI65
aag374
a(lp642
I90
aI14
aa(lp643
I90
aI51
aa(lp644
I94
aI65
aag242
ag115
ag380
ag485
ag613
ag13
ag357
ag134
ag15
ag503
ag366
ag121
ag343
a(lp645
I92
aI13
aag283
a(lp646
I92
aI60
aa(lp647
I79
aI8
aa(lp648
I72
aI9
aa(lp649
I70
aI6
aag111
a(lp650
I90
aI52
aa(lp651
I76
aI10
aag37
ag634
ag303
a(lp652
I93
aI35
aag83
a(lp653
I94
aI61
aa(lp654
I90
aI55
aag324
ag87
ag473
ag325
ag16
ag211
a(lp655
I59
aI5
aa(lp656
I92
aI60
aa(lp657
I86
aI10
aa(lp658
I94
aI64
aag346
ag430
ag408
ag471
a(lp659
I91
aI46
aag441
ag445
ag140
ag217
ag539
ag150
a(lp660
I95
aI65
aag32
ag632
ag210
ag486
ag407
a(lp661
I83
aI9
aag209
a(lp662
I93
aI12
aa(lp663
I90
aI18
aag313
ag384
ag199
a(lp664
I61
aI3
aag446
a(lp665
I67
aI6
aa(lp666
I93
aI58
aag138
ag565
ag328
ag345
ag628
ag483
ag527
ag184
ag585
ag400
a(lp667
I92
aI50
aa(lp668
I50
aI4
aag214
ag405
ag358
a(lp669
I84
aI13
aag30
ag503
a(lp670
I90
aI12
aag459
a(lp671
I94
aI63
aa(lp672
I93
aI63
aag66
ag47
ag667
a(lp673
I93
aI65
aag518
ag538
a(lp674
I93
aI64
aag417
a(lp675
I65
aI13
aag109
a(lp676
I92
aI60
aag168
ag415
a(lp677
I88
aI11
aa(lp678
I93
aI52
aag495
a(lp679
I90
aI50
aag337
ag369
ag493
ag512
a(lp680
I87
aI12
aag139
ag666
ag391
ag296
ag594
ag329
ag270
ag228
a(lp681
I95
aI80
aag633
a(lp682
I77
aI39
aa(lp683
I62
aI4
aag132
ag42
ag54
a(lp684
I94
aI64
aag307
ag240
ag204
a(lp685
I68
aI10
aa(lp686
I95
aI65
aa(lp687
I94
aI64
aa(lp688
I64
aI7
aa(lp689
I92
aI50
aag638
ag215
ag8
ag42
ag303
a(lp690
I66
aI7
aag77
a(lp691
I94
aI59
aag233
a(lp692
I92
aI48
aag31
ag671
ag284
a(lp693
I89
aI10
aa(lp694
I90
aI59
aa(lp695
I93
aI55
aag74
a(lp696
I89
aI12
aag407
ag382
a(lp697
I50
aI6
aa(lp698
I94
aI73
aag563
ag494
ag559
ag218
a(lp699
I68
aI10
aa(lp700
I90
aI11
aa(lp701
I87
aI63
aa(lp702
I93
aI58
aag163
ag542
a(lp703
I75
aI8
aag649
a(lp704
I86
aI16
aag507
a(lp705
I91
aI28
aag397
ag282
ag199
ag223
a(lp706
I67
aI5
aag92
ag284
a(lp707
I68
aI10
aag416
a(lp708
I93
aI60
aag107
a(lp709
I87
aI20
aag29
a(lp710
I60
aI3
aag703
ag377
a(lp711
I93
aI54
aa(lp712
I95
aI52
aag153
a(lp713
I90
aI22
aa(lp714
I94
aI74
aa(lp715
I94
aI25
aag436
ag398
ag466
a(lp716
I58
aI7
aag332
ag375
ag236
a(lp717
I96
aI59
aag553
ag446
ag714
ag552
ag580
ag622
ag12
ag117
ag472
ag646
ag391
ag504
ag340
a(lp718
I93
aI50
aag422
a(lp719
I86
aI10
aa(lp720
I76
aI7
aag406
a(lp721
I94
aI65
aag315
ag175
a(lp722
I31
aI8
aag66
ag189
a(lp723
I68
aI10
aa(lp724
I74
aI8
aa(lp725
I70
aI6
aa(lp726
I70
aI20
aag606
ag340
a(lp727
I96
aI16
aag188
ag669
ag667
ag478
ag104
ag687
ag576
ag547
ag326
ag709
ag364
a(lp728
I81
aI9
aag453
a(lp729
I54
aI12
aa(lp730
I71
aI10
aa(lp731
I70
aI6
aag122
ag646
ag731
ag420
ag669
ag479
a(lp732
I62
aI5
aag259
ag17
ag34
ag362
ag637
ag494
a(lp733
I64
aI8
aag147
a(lp734
I94
aI65
aag433
ag232
a(lp735
I92
aI49
aag187
a(lp736
I60
aI2
aag305
ag577
ag447
ag654
ag469
ag593
a(lp737
I90
aI56
aag339
ag93
a(lp738
I92
aI48
aag389
ag141
ag619
a(lp739
I87
aI10
aag171
ag478
ag419
a(lp740
I94
aI25
aa(lp741
I91
aI44
aag722
a(lp742
I93
aI55
aa(lp743
I90
aI19
aag405
ag184
ag511
ag325
ag195
a(lp744
I93
aI19
aag479
a(lp745
I94
aI69
aa(lp746
I93
aI51
aa(lp747
I92
aI47
aag628
ag228
ag15
a(lp748
I79
aI56
aa(lp749
I91
aI53
aa(lp750
I92
aI62
aag594
ag651
ag497
a(lp751
I91
aI19
aag596
a(lp752
I93
aI65
aag131
ag366
ag462
a(lp753
I91
aI56
aag618
ag613
ag197
ag505
ag719
ag616
a(lp754
I60
aI2
aa(lp755
I92
aI22
aag693
ag600
a(lp756
I69
aI6
aa(lp757
I94
aI74
aag681
ag434
a(lp758
I92
aI50
aag655
a(lp759
I92
aI58
aag17
a(lp760
I85
aI11
aa(lp761
I60
aI2
aa(lp762
I89
aI45
aa(lp763
I91
aI60
aa(lp764
I91
aI60
aag71
ag377
ag106
a(lp765
I94
aI69
aag151
ag99
a(lp766
I87
aI49
aag583
ag664
ag762
ag645
a(lp767
I92
aI61
aag761
ag198
a(lp768
I83
aI12
aa(lp769
I68
aI10
aag601
a(lp770
I94
aI50
aag31
ag20
ag467
ag305
ag29
ag507
ag478
ag631
ag102
ag488
ag684
ag73
ag358
a(lp771
I90
aI14
aag688
ag669
ag755
ag325
ag367
ag313
ag476
a(lp772
I94
aI65
aag519
ag221
a(lp773
I94
aI65
aag471
a(lp774
I62
aI4
aa(lp775
I92
aI29
aag45
ag520
ag539
a(lp776
I93
aI60
aag657
a(lp777
I93
aI54
aa(lp778
I75
aI8
aa(lp779
I93
aI56
aag200
ag296
ag764
ag498
ag711
ag687
a(lp780
I85
aI10
aag114
ag197
ag595
ag242
ag575
a(lp781
I95
aI12
aa(lp782
I92
aI51
aag508
ag534
ag632
a(lp783
I94
aI65
aag377
ag48
ag741
ag485
ag683
ag154
ag670
ag56
a(lp784
I93
aI65
aa(lp785
I97
aI16
aag774
ag195
ag697
ag283
a(lp786
I68
aI10
aag181
a(lp787
I93
aI55
aag302
ag627
ag706
a(lp788
I95
aI73
aa(lp789
I91
aI51
aag125
a(lp790
I92
aI48
aag88
ag196
a(lp791
I90
aI50
aag593
ag651
ag358
a(lp792
I89
aI21
aa(lp793
I94
aI69
aa(lp794
I94
aI64
aag682
ag53
a(lp795
I54
aI10
aag658
ag772
ag479
ag531
ag464
ag744
ag240
ag55
ag494
ag251
ag455
ag255
a(lp796
I92
aI18
aa(lp797
I93
aI51
aag435
ag430
ag260
ag303
a(lp798
I94
aI23
aag469
a(lp799
I94
aI65
aag404
ag394
ag608
ag312
ag710
a(lp800
I88
aI50
aag410
ag231
ag566
ag512
a(lp801
I92
aI50
aa(lp802
I94
aI69
aag657
ag734
ag431
a(lp803
I86
aI28
aa(lp804
I75
aI8
aag22
a(lp805
I62
aI4
aag610
ag132
a(lp806
I92
aI61
aag509
ag435
ag58
a(lp807
I60
aI3
aag556
ag468
a(lp808
I93
aI22
aa(lp809
I91
aI14
aag638
a(lp810
I62
aI4
aag522
ag549
ag462
a(lp811
I89
aI10
aa(lp812
I67
aI8
aag5
ag52
ag563
ag330
a(lp813
I68
aI6
aag733
ag280
ag428
ag752
ag455
ag175
a(lp814
I62
aI4
aag811
ag721
a(lp815
I93
aI61
aa(lp816
I60
aI2
aag226
ag431
ag178
ag495
ag787
ag645
ag306
ag258
ag64
ag403
ag512
a(lp817
I60
aI2
aa(lp818
I73
aI9
aag500
a(lp819
I59
aI3
aa(lp820
I69
aI7
aag517
ag29
ag170
ag62
ag670
a(lp821
I77
aI8
aag184
a(lp822
I95
aI75
aag210
ag786
ag136
ag770
ag521
ag652
ag15
ag810
ag797
a(lp823
I95
aI48
aag592
ag37
ag317
ag762
ag422
a(lp824
I94
aI64
aag497
ag90
ag331
ag122
ag84
ag29
ag556
ag101
ag189
a(lp825
I80
aI10
aag581
a(lp826
I74
aI8
aag812
a(lp827
I90
aI51
aag374
ag543
ag577
ag365
ag378
ag101
ag454
a(lp828
I80
aI9
aa(lp829
I94
aI63
aag198
ag609
ag359
ag696
ag413
ag255
ag157
ag211
ag707
ag776
ag104
ag465
ag695
a(lp830
I94
aI64
aag687
ag262
ag356
ag811
ag663
ag793
ag227
ag124
a(lp831
I92
aI60
aa(lp832
I89
aI11
aag490
ag566
ag824
ag135
ag84
ag729
a(lp833
I92
aI60
aag490
ag690
ag462
ag466
ag10
a(lp834
I94
aI15
aag681
ag531
a(lp835
I92
aI61
aag391
ag480
ag459
ag32
ag722
ag108
ag94
a(lp836
I88
aI21
aag750
a(lp837
I68
aI10
aa(lp838
I93
aI63
aag284
a(lp839
I92
aI51
aag675
a(lp840
I71
aI6
aag159
ag352
ag222
ag115
ag576
ag829
a(lp841
I82
aI11
aag576
a(lp842
I62
aI5
aag657
ag511
a(lp843
I67
aI11
aag503
ag580
ag819
ag649
ag824
ag83
a(lp844
I93
aI63
aag725
a(lp845
I92
aI50
aag278
a(lp846
I94
aI59
aag356
ag542
ag498
ag127
ag144
ag305
ag217
ag30
ag78
ag20
ag664
ag335
ag568
a(lp847
I84
aI13
aa(lp848
I93
aI63
aag112
ag101
ag667
ag44
ag463
ag343
ag669
ag377
ag602
ag120
ag685
ag729
a(lp849
I92
aI53
aag640
ag129
a(lp850
I50
aI5
aa(lp851
I92
aI60
aag318
ag23
ag274
ag645
ag158
ag356
ag699
ag747
a(lp852
I93
aI61
aag226
ag671
ag572
ag576
ag363
ag234
ag792
ag418
ag25
ag593
ag63
a(lp853
I60
aI2
aa(lp854
I93
aI46
aag378
ag194
ag351
ag410
ag554
ag472
a(lp855
I60
aI2
aag58
ag82
ag389
a(lp856
I93
aI21
aag216
ag109
ag671
ag519
ag441
a(lp857
I92
aI60
aag204
ag124
ag855
ag448
a(lp858
I90
aI46
aag443
a(lp859
I95
aI80
aag564
ag804
a(lp860
I94
aI72
aa(lp861
I93
aI54
aa(lp862
I94
aI65
aag375
ag402
ag139
ag555
ag190
a(lp863
I94
aI60
aa(lp864
I95
aI62
aag468
a(lp865
I93
aI54
aag535
ag139
ag716
a(lp866
I68
aI10
aa(lp867
I93
aI55
aag611
ag808
ag756
ag488
a(lp868
I93
aI63
aag536
a(lp869
I92
aI51
aag750
ag178
ag562
a(lp870
I94
aI64
aag274
ag866
ag51
ag837
a(lp871
I76
aI7
aag13
ag504
ag210
ag298
ag802
ag724
ag344
ag427
ag732
ag792
ag271
a(lp872
I92
aI50
aag867
ag692
ag259
ag538
a(lp873
I86
aI35
aa(lp874
I87
aI14
aag468
ag313
ag127
ag752
ag586
ag112
a(lp875
I66
aI5
aa(lp876
I80
aI9
aag275
a(lp877
I68
aI10
aa(lp878
I90
aI33
aa(lp879
I92
aI61
aag405
a(lp880
I91
aI56
aag295
ag209
a(lp881
I94
aI69
aag547
ag849
ag287
ag802
ag532
ag489
ag132
ag29
ag121
a(lp882
I92
aI54
aa(lp883
I85
aI11
aag593
ag130
ag328
ag104
ag393
a(lp884
I92
aI60
aag484
ag525
ag580
ag420
ag494
ag513
ag821
ag778
ag61
ag53
ag507
ag668
ag841
ag140
a(lp885
I82
aI12
aag342
ag271
a(lp886
I93
aI52
aag819
ag872
a(lp887
I91
aI43
aag256
ag502
ag673
ag337
ag723
a(lp888
I92
aI60
aag29
ag608
a(lp889
I85
aI10
aag834
ag674
ag174
ag605
ag737
ag778
ag129
ag498
ag22
ag477
ag613
ag706
ag728
a(lp890
I92
aI61
aa(lp891
I84
aI18
aag195
ag170
ag720
ag308
ag473
ag504
a(lp892
I60
aI5
aa(lp893
I89
aI21
aag808
a(lp894
I93
aI61
aag631
ag679
ag251
ag610
a(lp895
I94
aI51
aag607
ag526
ag221
ag618
ag432
a(lp896
I73
aI8
aag510
ag96
a(lp897
I78
aI8
aag47
a(lp898
I94
aI60
aa(lp899
I95
aI80
aag814
ag137
ag650
ag400
a(lp900
I89
aI16
aa(lp901
I93
aI51
aag417
ag565
ag869
ag811
ag123
ag365
ag378
ag724
ag879
ag477
ag871
ag739
a(lp902
I92
aI61
aag857
ag385
ag774
ag34
ag472
ag50
a(lp903
I62
aI4
aag474
a(lp904
I88
aI11
aag584
ag267
ag297
ag2
ag588
ag889
ag828
ag156
ag163
ag69
ag232
ag548
ag238
ag531
ag153
ag732
ag645
ag39
ag242
ag866
ag269
a(lp905
I92
aI11
aag177
ag877
ag78
a(lp906
I92
aI54
aag72
a(lp907
I92
aI61
aag463
ag590
ag870
ag7
ag195
ag201
ag25
ag309
ag279
ag219
a(lp908
I83
aI40
aag72
ag455
a(lp909
I60
aI2
aag753
ag647
ag213
ag710
ag165
a(lp910
I93
aI51
aag821
ag706
ag49
ag472
ag819
ag598
ag908
a(lp911
I92
aI61
aag742
ag590
a(lp912
I63
aI6
aag277
ag122
ag833
ag870
a(lp913
I93
aI55
aag495
ag157
ag167
ag680
a(lp914
I92
aI55
aag728
ag825
a(lp915
I87
aI63
aag761
ag539
a(lp916
I79
aI12
aag140
ag343
ag184
ag379
a(lp917
I64
aI7
aag555
ag390
ag134
ag129
ag485
ag301
ag816
ag796
a(lp918
I60
aI2
aag390
a(lp919
I70
aI20
aag716
ag127
ag53
ag611
ag454
ag189
ag471
ag210
ag841
ag780
ag26
ag747
a(lp920
I66
aI9
aag443
ag45
ag826
ag172
ag431
a(lp921
I80
aI10
aag120
ag155
ag562
a(lp922
I93
aI48
aag750
a(lp923
I92
aI61
aag298
ag552
ag819
ag753
ag713
ag730
a(lp924
I94
aI64
aag551
ag371
ag628
a(lp925
I87
aI49
aag900
a(lp926
I61
aI4
aag538
ag570
ag789
ag230
ag561
ag431
ag767
a(lp927
I95
aI72
aag596
ag816
ag870
ag582
ag919
ag492
ag698
ag244
ag414
ag172
ag401
ag888
ag414
ag156
ag461
ag561
ag602
ag774
ag32
ag473
ag352
a(lp928
I84
aI11
aa(lp929
I92
aI61
aag127
ag314
ag287
ag253
ag37
ag397
ag484
ag534
ag546
ag547
a(lp930
I88
aI12
aag61
ag141
ag339
ag467
ag399
ag434
ag875
ag199
ag833
ag475
ag880
ag233
ag425
ag816
ag79
ag682
ag413
ag479
ag619
ag676
ag211
ag799
ag367
ag268
ag638
ag748
ag694
ag917
ag820
ag205
ag552
ag86
ag678
ag501
ag441
ag472
a(lp931
I94
aI63
aag425
ag75
ag624
ag759
ag462
ag267
ag819
ag675
ag766
ag64
ag614
ag439
ag890
ag153
ag533
ag746
ag523
ag71
ag886
ag346
a(lp932
I83
aI42
aa(lp933
I92
aI60
aag606
ag720
ag488
ag155
ag774
ag719
ag742
a(lp934
I73
aI9
aag566
ag41
a(lp935
I81
aI10
aag766
ag218
ag782
ag51
ag67
ag574
ag426
ag393
ag755
ag218
ag710
ag266
ag217
ag2
ag521
ag253
ag278
ag43
ag270
ag748
ag571
ag832
ag203
ag267
ag822
ag621
a(lp936
I93
aI62
aag681
ag279
ag239
a(lp937
I95
aI65
aag744
a(lp938
I86
aI13
aag61
ag51
ag318
ag793
ag232
ag319
a(lp939
I91
aI11
aag372
ag428
ag649
ag117
ag103
ag298
ag763
ag888
ag279
ag838
ag834
ag22
ag925
ag27
ag92
ag507
ag428
ag495
ag154
ag749
ag699
ag869
ag470
ag250
ag880
ag533
ag21
ag455
ag351
a(lp940
I93
aI51
aa(lp941
I93
aI64
aag865
ag691
ag176
ag101
ag782
ag314
ag60
ag848
a(lp942
I94
aI62
aag447
ag667
ag862
ag58
ag743
ag72
ag258
a(lp943
I89
aI35
aag72
ag479
a(lp944
I94
aI51
aa(lp945
I96
aI59
aag179
a(lp946
I92
aI43
aa(lp947
I62
aI5
aag96
ag149
ag386
ag739
ag866
a(lp948
I79
aI9
aag632
ag678
ag792
ag381
ag231
ag831
a(lp949
I92
aI60
aag297
ag608
ag721
ag919
ag569
a(lp950
I95
aI66
aag766
ag806
ag447
ag251
ag191
ag298
ag865
ag946
a(lp951
I68
aI10
aag466
ag489
ag931
ag64
a(lp952
I90
aI53
aa(lp953
I95
aI81
aag586
ag911
ag855
ag78
ag16
ag245
a(lp954
I86
aI11
aag4
a(lp955
I68
aI10
aag796
ag285
ag672
ag875
ag167
ag629
ag932
ag23
ag225
ag523
ag425
ag892
ag190
ag498
ag149
ag867
ag416
ag663
ag710
ag756
ag158
ag573
ag767
ag56
a(lp956
I60
aI3
aag431
ag551
ag533
ag731
ag855
ag810
ag364
ag45
ag230
a(lp957
I95
aI64
aa(lp958
I88
aI28
aag802
ag481
ag320
ag683
ag871
ag799
ag885
ag828
ag818
ag205
ag958
ag47
ag696
ag920
ag803
a(lp959
I91
aI56
aag91
a(lp960
I92
aI61
aag75
a(lp961
I95
aI62
aag61
ag8
ag35
a(lp962
I68
aI10
aag587
ag955
a(lp963
I69
aI12
aag794
ag105
ag466
ag501
ag729
ag571
ag538
ag913
ag834
ag773
ag290
ag666
ag906
a(lp964
I84
aI11
aag448
ag385
ag269
ag94
ag895
a(lp965
I61
aI3
aag264
a(lp966
I93
aI62
aag30
ag935
ag586
ag212
ag874
ag649
ag110
ag681
ag474
ag185
ag186
ag99
ag123
ag242
ag648
ag589
a(lp967
I71
aI7
aag477
ag595
ag156
ag366
ag590
ag694
ag768
ag103
ag278
ag260
ag497
ag436
ag200
ag14
ag570
ag158
ag154
ag164
ag101
ag196
ag254
a(lp968
I68
aI13
aag749
ag648
ag322
ag403
ag646
ag551
ag24
ag644
ag577
ag627
ag264
ag441
ag246
ag946
ag959
ag760
a(lp969
I93
aI49
aag256
a(lp970
I93
aI23
aag649
ag214
ag656
ag296
ag968
ag665
ag393
ag288
ag158
ag644
ag740
ag433
ag432
ag935
ag286
ag179
ag111
ag694
ag750
a(lp971
I92
aI61
aag908
ag914
a(lp972
I94
aI63
aag471
ag967
a(lp973
I94
aI65
aag865
ag730
a(lp974
I97
aI13
aag699
a(lp975
I94
aI65
aag251
ag436
ag616
ag633
ag442
ag260
ag126
ag913
a(lp976
I91
aI48
aag758
ag835
ag868
ag889
a(lp977
I88
aI10
aag37
ag876
a(lp978
I61
aI4
aag651
ag573
ag358
ag388
a(lp979
I84
aI43
aag464
a(lp980
I91
aI50
aag802
ag169
ag696
ag654
ag215
ag900
a(lp981
I94
aI64
aag304
ag893
ag129
ag872
ag167
ag94
ag947
a(lp982
I66
aI8
aag141
ag274
ag929
ag731
a(lp983
I88
aI44
aag637
ag945
ag196
ag244
ag254
ag308
ag408
ag757
ag331
ag494
ag749
ag440
ag287
ag825
ag287
ag294
ag32
ag754
ag153
ag326
ag928
a(lp984
I94
aI51
aag31
a(lp985
I94
aI69
aag645
ag357
ag661
ag768
ag778
ag313
ag813
ag267
ag162
ag181
ag929
ag636
ag103
ag172
ag2
ag687
ag939
ag919
ag805
ag962
a(lp986
I84
aI11
aag432
ag554
ag598
ag381
ag431
ag640
ag631
ag455
ag649
ag841
ag723
ag718
ag823
ag371
ag220
ag635
ag4
ag405
ag932
ag702
ag34
ag211
ag406
ag889
ag210
ag199
ag185
ag192
ag648
ag108
a(lp987
I92
aI56
aag486
ag714
ag109
a(lp988
I79
aI14
aag743
ag961
ag438
ag537
ag936
ag784
ag587
ag612
ag240
ag368
ag969
ag733
ag140
ag808
ag915
ag55
ag900
ag11
ag508
a(lp989
I60
aI2
aag484
ag66
ag307
a(lp990
I92
aI55
aag177
ag439
ag429
ag734
ag860
ag854
ag913
ag960
ag46
ag178
ag295
ag936
ag244
ag461
ag105
ag736
ag675
ag518
ag868
ag931
ag562
ag75
ag866
ag384
ag804
a(lp991
I84
aI10
aag105
ag925
ag926
ag964
ag910
ag265
ag984
ag284
ag447
ag353
ag29
ag678
ag864
ag559
ag30
ag10
ag712
ag730
ag793
ag494
ag724
ag476
ag847
ag707
ag70
ag578
ag677
ag343
ag630
ag395
ag360
ag747
ag115
ag564
ag698
ag174
ag739
ag919
ag840
ag894
ag708
a(lp992
I94
aI60
aag874
ag171
ag231
ag835
ag42
ag834
ag277
ag181
ag877
ag886
ag824
ag68
ag862
ag89
ag982
ag74
a(lp993
I94
aI54
aag823
ag499
ag326
ag671
ag745
a(lp994
I93
aI51
aag945
ag330
ag454
ag305
ag617
ag838
ag419
ag234
ag883
ag163
ag357
ag534
ag836
ag720
ag169
ag222
ag364
a(lp995
I87
aI49
aag425
ag600
ag397
ag917
ag524
ag704
ag242
ag758
a(lp996
I93
aI62
aag179
ag50
ag457
ag236
ag11
a(lp997
I91
aI56
aag862
ag368
ag71
ag676
a(lp998
I61
aI4
aag247
ag158
ag198
ag594
ag265
ag54
ag81
ag498
ag685
a(lp999
I95
aI58
aag803
ag652
ag462
ag355
ag10
ag86
ag429
ag676
ag823
ag640
ag646
ag77
a(lp1000
I81
aI9
aag434
ag206
a(lp1001
I93
aI62
aag871
ag998
ag621
ag692
ag509
ag941
ag184
ag913
ag120
ag243
ag133
ag872
ag11
ag476
ag551
a(lp1002
I92
aI62
aag454
ag376
ag49
ag420
ag84
ag874
ag363
ag897
ag502
ag564
ag229
ag9
ag81
ag908
ag63
ag919
ag666
ag888
ag217
ag105
ag468
ag597
ag915
ag22
ag568
ag662
ag764
ag919
ag911
ag815
ag544
ag174
ag72
ag134
ag979
ag60
ag22
ag416
ag578
ag85
ag986
ag519
ag436
a(lp1003
I89
aI39
aag683
ag705
ag341
ag812
ag436
ag507
ag46
ag248
ag100
ag773
ag846
ag824
ag385
ag402
ag353
ag59
ag941
ag795
ag467
ag946
ag698
ag869
ag132
ag571
ag728
ag248
ag47
ag769
ag740
a(lp1004
I71
aI6
aag326
ag219
ag375
ag288
ag795
ag709
ag494
ag647
ag292
ag798
ag340
ag345
ag219
ag283
ag971
ag198
ag34
ag469
ag60
ag618
ag133
ag287
ag324
ag443
ag365
a(lp1005
I70
aI29
aag38
ag600
ag705
ag817
ag28
ag328
ag744
ag81
ag403
ag20
ag391
ag971
ag284
ag415
ag826
ag699
ag189
a(lp1006
I94
aI65
aag232
ag658
ag299
ag232
ag603
ag251
ag805
ag351
ag611
ag608
ag863
ag179
ag720
ag423
ag945
ag8
ag824
ag234
ag30
ag246
ag468
ag776
ag19
ag749
ag731
ag191
ag997
ag331
a(lp1007
I90
aI47
aag261
a(lp1008
I92
aI59
aag846
a(lp1009
I90
aI58
aag453
ag154
ag592
ag984
ag635
ag157
ag218
ag185
a(lp1010
I43
aI28
aag337
ag755
ag340
ag793
ag983
ag579
ag718
ag40
ag968
ag864
ag654
ag833
ag193
ag597
ag399
ag113
ag307
ag568
ag457
ag232
ag740
ag563
ag616
ag973
ag894
ag880
ag45
ag408
ag385
ag361
ag182
ag431
ag496
ag178
ag125
ag958
ag354
ag60
ag514
ag676
ag388
a(lp1011
I88
aI11
aag493
a(lp1012
I94
aI54
aag453
ag783
ag151
ag539
ag661
ag791
ag839
ag885
ag29
ag261
ag513
ag829
ag444
ag479
ag860
ag695
ag276
ag172
ag352
ag654
ag313
ag688
ag771
ag846
ag15
ag237
ag601
a(lp1013
I93
aI59
aag105
ag688
ag43
ag545
ag560
ag628
ag428
ag226
ag980
ag949
ag316
ag907
ag779
ag225
ag740
ag906
ag133
a(lp1014
I94
aI65
aag378
ag844
ag892
ag197
ag327
ag797
ag421
ag953
ag727
ag398
ag82
ag16
ag969
ag283
ag254
ag416
ag176
ag538
ag667
ag397
a(lp1015
I60
aI3
aag900
ag640
ag428
ag688
ag123
ag781
ag624
ag132
ag522
ag75
ag301
ag122
ag1001
ag61
ag21
ag586
ag1015
ag430
ag660
ag159
ag831
ag616
ag278
ag843
ag277
ag619
ag682
ag182
ag317
ag28
ag1013
ag887
ag341
ag293
ag631
ag770
ag98
ag490
ag782
ag884
ag692
ag157
ag678
ag43
ag849
ag223
ag518
ag45
ag449
ag602
ag192
ag754
ag666
ag567
ag494
ag1007
ag811
ag112
ag524
ag213
ag500
ag932
ag236
ag417
ag869
ag86
ag934
a(lp1016
I61
aI3
aag460
ag696
ag545
a(lp1017
I81
aI9
aag219
ag866
ag718
ag915
ag284
ag457
ag200
ag967
ag153
ag875
ag776
ag350
ag72
ag199
ag427
ag181
ag684
ag303
ag85
ag791
ag442
ag459
ag941
a(lp1018
I92
aI61
aag531
ag454
ag806
ag591
ag315
ag540
ag1000
ag370
ag292
ag497
ag328
ag203
ag342
ag45
ag6
ag681
ag823
a(lp1019
I96
aI23
aag650
ag115
ag449
ag54
a(lp1020
I92
aI29
aag332
ag523
ag461
ag456
ag190
ag644
ag616
ag237
ag630
ag222
ag749
ag331
ag294
ag614
ag571
ag63
ag609
ag306
ag408
ag457
ag366
ag673
ag326
ag156
ag526
ag229
ag596
ag840
ag529
ag107
ag252
ag839
ag899
ag328
ag946
ag152
ag963
ag400
ag919
ag716
ag758
ag562
ag61
ag915
ag351
ag631
ag111
ag185
ag280
ag504
ag892
ag878
ag1010
ag334
ag163
a(lp1021
I92
aI62
aag96
ag738
ag252
ag366
ag178
ag505
ag239
ag200
ag964
ag346
ag482
ag127
ag673
ag344
ag875
ag676
ag301
ag894
ag428
ag695
ag998
ag702
ag739
ag899
ag437
ag688
ag46
ag705
ag233
ag4
ag342
ag197
ag150
ag301
ag492
ag273
a(lp1022
I61
aI3
aag376
ag240
ag454
ag661
ag370
ag226
ag909
ag1019
ag622
ag917
ag679
ag428
ag659
ag418
ag704
ag437
ag52
ag961
ag273
ag212
ag598
ag328
ag163
ag181
ag467
ag218
ag760
ag401
ag831
ag788
ag114
ag455
ag663
ag528
ag848
ag159
ag267
ag838
ag638
ag752
ag3
ag615
ag207
ag20
a(lp1023
I86
aI11
aag418
ag728
ag860
ag748
ag339
ag159
ag212
ag921
ag660
ag393
ag528
ag630
ag428
ag872
ag27
ag335
ag813
ag440
ag419
ag750
ag859
ag266
ag1013
ag578
ag69
ag99
ag796
ag547
ag1001
ag838
ag263
ag749
ag379
ag755
ag447
ag832
ag188
a(lp1024
I90
aI11
aag493
ag491
ag294
ag444
ag422
ag754
ag427
ag284
ag158
ag69
ag602
ag664
ag712
ag385
ag155
ag1014
a(lp1025
I61
aI4
aag563
ag125
ag36
ag314
ag790
ag369
ag307
ag82
ag1005
ag431
ag961
ag891
ag561
ag627
a(lp1026
I95
aI54
aag34
ag449
ag137
ag471
ag539
ag756
ag948
ag448
ag811
ag590
ag561
ag125
ag321
ag163
ag411
ag192
ag746
ag646
ag149
ag195
a(lp1027
I90
aI22
aag862
ag780
ag520
ag981
ag437
ag785
ag538
ag40
ag867
ag18
ag1024
ag154
ag88
ag899
ag832
ag168
ag624
ag449
ag521
ag1013
ag454
ag835
ag731
ag360
ag423
ag102
ag201
ag981
ag755
ag299
ag252
ag927
a(lp1028
I88
aI48
aag884
ag401
a(lp1029
I89
aI45
aag122
ag486
ag1007
ag315
ag783
ag905
ag435
ag16
ag874
ag632
ag330
ag535
ag341
ag880
ag730
ag124
ag78
ag589
ag782
a(lp1030
I80
aI8
aag414
ag225
ag614
ag686
ag225
ag758
ag342
ag705
ag112
ag273
ag930
ag902
ag177
ag632
ag123
ag903
ag616
ag605
ag675
ag408
ag862
ag729
ag798
ag437
ag887
ag491
ag320
ag586
ag212
ag485
ag505
ag915
ag893
ag949
ag840
ag88
ag477
ag153
ag884
ag829
ag826
ag26
ag470
ag1000
ag580
ag850
ag747
ag171
ag944
ag853
ag836
ag472
ag768
ag655
ag198
ag806
ag18
ag64
ag566
ag35
ag795
ag1001
ag302
ag175
ag417
ag947
ag536
ag541
ag639
ag530
ag617
ag872
ag1003
ag129
ag709
ag17
ag974
ag471
ag13
ag390
ag854
ag830
ag353
ag733
ag885
ag418
a(lp1031
I84
aI10
aag501
ag127
ag112
ag371
ag827
ag986
ag566
ag199
ag814
ag829
ag634
ag203
ag887
ag787
ag277
ag908
ag560
ag129
ag940
ag523
ag261
ag927
ag639
ag940
a(lp1032
I73
aI8
aag706
ag817
ag68
ag644
ag579
ag69
ag912
ag878
ag668
ag716
a(lp1033
I83
aI11
aag893
ag579
ag188
ag783
ag5
ag435
ag220
ag357
ag993
ag579
ag600
ag213
ag7
ag973
ag991
ag382
ag602
ag929
ag652
a(lp1034
I69
aI12
aag470
ag822
ag27
ag199
ag491
ag575
ag564
ag994
ag507
ag670
ag334
ag598
ag324
ag558
ag985
ag425
ag713
ag682
ag638
ag1018
ag861
ag453
ag660
ag452
ag671
ag19
ag970
ag934
ag684
ag316
ag692
ag157
ag677
ag780
ag449
ag820
ag975
ag169
ag747
ag904
ag1002
ag241
ag819
ag223
ag928
a(lp1035
I60
aI2
aag25
ag663
ag625
ag129
ag335
ag634
ag481
ag782
ag781
ag132
ag842
ag526
ag807
ag564
ag187
ag686
ag347
a(lp1036
I93
aI49
aa(lp1037
I94
aI54
aag167
ag922
ag117
ag419
ag521
ag377
ag211
a(lp1038
I94
aI63
aag865
ag585
ag658
ag45
ag997
ag726
ag568
ag103
ag977
ag542
ag249
ag392
ag887
ag201
ag324
ag78
ag399
ag966
ag164
ag233
ag1027
ag397
ag583
ag222
ag830
ag944
ag18
ag110
ag493
ag967
ag598
ag834
ag312
ag241
ag235
ag449
ag165
ag756
ag490
ag771
ag840
a(lp1039
I94
aI11
aag869
ag83
ag326
ag489
ag42
ag865
ag653
ag918
ag594
ag21
a(lp1040
I94
aI60
aag454
ag548
ag884
ag1032
ag851
ag997
ag421
ag789
ag63
ag383
ag563
ag126
ag560
ag229
ag207
ag146
ag748
a(lp1041
I84
aI13
aag810
ag948
ag365
ag672
ag318
ag508
ag310
ag296
ag204
ag684
ag878
ag434
ag218
ag525
ag20
a(lp1042
I93
aI54
aag279
ag411
ag547
ag103
ag243
ag505
ag138
ag635
ag222
ag724
ag469
ag185
ag958
ag424
ag816
ag473
ag107
ag165
ag799
ag586
ag393
ag286
ag503
ag430
ag678
ag714
ag935
ag2
ag364
ag267
ag739
ag936
ag697
ag417
ag499
ag811
ag637
ag710
ag11
ag787
ag498
ag637
ag506
ag779
ag521
ag778
ag294
ag488
ag474
ag784
ag93
ag686
ag920
ag58
ag280
ag176
ag927
ag475
ag1032
ag745
ag332
ag609
a(lp1043
I62
aI4
aag579
ag685
ag453
ag880
ag628
ag178
ag257
ag975
ag413
ag985
ag971
ag626
ag639
ag293
ag366
ag629
ag959
ag69
ag1018
ag305
ag488
ag838
ag333
ag41
ag683
ag677
ag729
ag26
ag599
ag796
ag121
ag874
a(lp1044
I92
aI60
aag430
ag708
ag432
ag110
ag722
ag799
ag278
ag619
ag970
ag273
ag823
ag637
ag149
ag982
ag353
ag947
ag230
ag671
ag291
ag986
ag1027
ag106
ag966
ag991
ag943
ag991
ag890
ag593
ag634
ag309
ag644
ag603
ag351
ag272
ag23
ag336
ag620
ag628
ag397
ag531
ag269
ag611
ag205
ag294
ag511
ag965
ag385
ag32
ag670
ag733
ag1037
ag638
ag782
ag444
a(lp1045
I92
aI61
aag41
ag524
ag810
ag534
ag979
ag839
ag656
ag383
ag157
ag220
ag522
ag944
ag110
ag1013
ag539
ag557
ag59
ag1018
ag736
ag968
ag161
ag525
ag296
ag635
ag255
ag806
ag724
ag538
ag65
ag919
ag353
ag630
ag677
ag158
ag842
ag799
ag137
ag187
ag102
ag146
ag331
ag658
ag430
ag212
ag334
ag660
ag530
ag110
ag72
ag609
ag697
ag338
ag91
ag591
ag981
ag288
ag466
ag601
ag365
ag263
ag404
ag223
ag829
ag938
ag51
ag551
ag327
ag268
ag716
ag543
ag826
ag208
ag679
ag151
ag987
ag450
ag940
ag219
ag580
ag223
ag974
ag1015
ag118
ag576
ag774
ag478
ag237
ag520
ag515
ag946
ag999
ag203
ag766
ag77
ag187
ag456
ag308
ag406
ag859
a(lp1046
I93
aI59
aag337
ag236
ag200
ag52
ag486
ag631
ag729
ag1005
ag162
ag993
ag768
ag3
ag792
ag39
ag60
ag616
ag199
ag549
ag529
ag950
ag708
ag999
ag105
ag122
ag573
ag851
ag956
ag91
ag506
ag9
ag909
ag74
ag556
ag934
ag719
ag867
ag92
ag483
ag115
ag996
ag968
ag656
ag518
ag125
ag690
ag805
ag235
ag414
ag673
ag308
ag15
ag584
ag593
ag567
ag82
ag564
ag784
ag677
ag289
ag802
ag70
ag343
ag726
ag528
ag489
ag156
ag666
ag139
ag161
ag638
ag422
ag635
ag947
ag193
ag342
ag214
ag641
ag891
ag453
ag863
a(lp1047
I75
aI11
aag47
ag836
ag515
ag428
ag1047
ag158
ag823
ag672
ag171
ag133
ag789
ag635
ag387
ag738
ag929
ag879
ag985
ag968
ag1047
ag40
ag604
ag112
ag51
ag676
ag496
ag527
ag710
ag74
ag789
ag191
ag981
ag168
ag329
ag185
ag201
ag1015
ag567
ag118
ag993
ag788
ag14
ag336
ag191
ag739
ag904
ag134
ag522
ag451
ag56
ag814
ag533
ag476
ag116
ag368
ag116
a(lp1048
I94
aI69
aag1001
ag177
ag829
ag412
ag778
ag367
ag1046
ag282
ag745
ag368
ag282
ag84
ag827
ag7
ag175
ag868
ag204
ag427
ag180
ag440
ag942
ag106
ag107
a(lp1049
I85
aI9
aag307
ag212
ag969
ag302
ag803
ag550
ag804
ag277
ag439
ag729
ag669
a(lp1050
I60
aI2
aag360
ag236
ag718
ag330
ag213
ag798
ag418
ag953
ag696
ag588
ag159
ag887
ag962
ag1042
ag1025
ag936
ag1016
ag239
ag340
ag754
ag480
ag1050
ag523
ag252
ag163
ag12
ag354
a(lp1051
I92
aI46
aag616
ag989
ag435
ag142
ag477
ag932
ag72
ag185
ag659
ag273
ag288
ag60
ag96
ag146
ag994
ag753
ag379
ag941
ag248
ag399
ag248
ag789
ag240
ag839
ag426
ag868
ag607
ag741
ag705
ag567
ag310
ag798
ag846
ag803
ag672
ag478
ag163
ag409
ag654
ag893
ag422
ag220
ag6
ag669
ag928
ag413
ag81
ag573
ag306
ag443
ag19
ag770
ag775
ag803
ag922
ag118
ag157
a(lp1052
I91
aI14
aag528
ag439
ag7
ag434
ag351
ag550
ag210
ag614
ag945
ag754
ag20
ag272
ag96
ag1039
ag518
ag721
ag773
ag409
ag409
ag860
ag352
ag207
ag131
ag800
ag855
ag87
ag842
ag613
ag666
ag749
ag857
ag780
ag870
ag796
ag83
ag532
ag295
ag1018
ag203
ag615
ag259
ag450
ag5
ag272
ag988
ag723
ag855
ag108
ag684
ag54
ag88
ag686
ag955
ag452
ag727
ag721
ag1031
a(lp1053
I92
aI57
aag923
ag108
ag368
ag385
ag544
ag337
ag657
ag983
ag722
ag256
ag251
ag837
a(lp1054
I60
aI4
aag895
ag897
ag108
ag1018
ag812
ag628
ag79
ag276
ag954
ag605
ag667
ag564
ag424
ag524
a(lp1055
I92
aI62
aag415
a(lp1056
I95
aI52
aag734
ag474
ag925
ag518
ag610
ag750
ag556
ag961
ag559
ag773
ag753
ag484
ag573
ag22
ag732
ag903
ag840
ag886
ag401
ag467
ag462
ag136
ag347
ag532
ag876
ag274
ag139
ag741
ag404
ag129
ag150
ag49
ag90
ag990
ag174
ag518
ag1036
ag166
ag967
ag933
ag1048
ag797
ag895
ag442
ag1049
ag123
ag5
ag195
ag368
ag40
ag742
ag842
ag1020
ag489
ag98
ag832
ag561
ag692
ag598
ag1023
ag317
ag220
ag43
ag859
ag842
ag866
ag556
ag622
ag837
ag692
ag921
ag844
ag692
ag100
ag1043
ag529
ag861
ag115
ag163
ag52
ag518
ag592
ag92
ag266
ag802
ag741
ag587
ag264
ag939
ag952
ag741
ag381
ag557
ag387
ag13
ag559
ag843
ag563
ag557
ag28
ag41
ag544
ag343
ag441
ag273
ag657
ag359
ag717
ag848
ag378
a(lp1057
I93
aI50
aag55
ag270
ag107
ag626
ag431
ag491
ag564
ag531
ag63
ag807
ag464
ag669
ag754
ag382
ag726
ag1019
ag907
ag219
ag92
ag507
ag913
ag62
ag864
ag562
ag1002
ag205
ag769
ag134
ag39
ag514
ag606
ag1012
ag663
ag916
ag49
ag318
ag796
ag195
ag60
a(lp1058
I63
aI4
aag563
ag941
ag41
ag710
ag991
ag559
ag190
ag928
ag461
ag316
ag903
ag172
ag250
ag804
ag177
ag772
ag791
ag617
ag180
ag765
ag54
ag166
ag742
ag457
ag614
ag260
ag323
ag21
ag521
ag635
ag543
ag607
ag745
ag737
ag1018
a(lp1059
I68
aI8
aag589
ag866
ag286
ag676
ag537
ag551
ag729
ag156
ag717
ag717
ag650
ag860
ag755
ag163
ag543
ag702
ag457
ag78
ag722
ag1003
ag807
ag474
ag582
ag1046
a(lp1060
I70
aI6
aag79
ag324
ag737
ag462
ag619
ag990
ag1037
ag290
ag612
a(lp1061
I92
aI62
aag397
ag505
ag987
ag497
ag933
ag391
ag1029
ag68
ag422
ag53
ag138
ag132
ag860
ag790
ag417
ag91
ag344
ag972
ag571
ag755
ag73
ag70
ag384
ag210
ag555
ag484
ag674
ag163
a(lp1062
I92
aI46
aag688
ag565
ag747
ag282
ag959
ag887
ag133
ag73
ag532
ag1058
ag711
ag482
ag76
ag326
ag33
ag515
ag710
ag241
ag703
ag689
ag752
ag245
ag1039
ag456
ag788
ag1000
ag238
ag45
ag934
ag204
ag407
ag56
ag795
ag285
ag473
ag788
ag752
ag617
ag868
ag512
ag140
ag517
ag274
ag932
ag449
ag555
ag88
ag465
ag363
ag757
ag1001
ag841
ag583
ag23
ag767
ag1042
ag422
ag706
ag836
ag576
ag799
ag120
ag1038
ag191
ag854
ag447
ag1049
ag868
ag284
ag728
ag786
ag554
ag12
ag516
ag329
ag383
ag335
ag607
ag776
ag316
ag180
ag545
ag126
ag367
ag256
ag567
ag433
ag151
ag118
ag759
ag238
ag44
ag387
ag574
ag984
ag141
ag499
ag300
ag996
ag263
ag718
ag37
ag511
ag390
ag666
ag237
ag552
ag188
ag1006
ag273
ag964
ag86
ag1013
ag811
ag317
ag767
ag85
ag848
ag748
ag931
ag326
ag27
ag469
ag718
ag1054
ag956
ag40
ag999
ag933
ag594
ag820
ag302
ag313
ag567
ag969
ag847
ag887
ag414
ag447
ag311
ag812
ag124
ag114
ag71
ag365
ag525
ag412
ag419
ag74
ag702
ag309
ag616
ag517
ag228
ag131
ag23
a(lp1063
I85
aI11
aag930
ag598
ag404
ag533
ag546
ag338
ag1034
ag604
ag500
ag7
ag21
ag996
ag1008
ag654
ag683
ag207
ag537
ag170
ag465
ag440
ag729
ag1020
ag1009
ag94
ag119
ag64
ag476
ag436
ag489
ag618
ag527
ag233
ag857
ag391
ag248
ag391
ag722
ag352
ag498
ag930
ag479
ag603
ag545
ag214
ag198
ag804
ag383
ag225
ag353
ag381
ag600
ag735
ag46
ag96
ag129
ag1044
ag234
ag714
ag316
a(lp1064
I82
aI8
aag878
ag453
ag201
ag910
ag143
ag432
ag260
ag96
ag429
ag318
ag838
ag533
ag298
ag223
ag129
ag61
ag116
ag679
ag764
ag204
ag472
ag850
ag11
ag645
ag117
ag688
ag333
ag36
ag230
ag624
ag960
ag875
ag914
ag21
ag648
ag312
ag280
ag279
ag212
ag317
ag625
ag299
ag280
ag1055
ag486
ag896
ag23
ag731
ag482
ag673
ag751
ag208
ag323
ag815
ag696
ag177
a(lp1065
I94
aI69
aag530
ag641
ag657
ag606
ag978
ag139
ag885
ag769
ag85
ag968
ag460
ag854
ag545
ag872
ag268
ag495
ag874
ag300
ag834
ag545
ag286
ag80
ag518
ag590
ag638
ag367
ag1020
ag808
ag263
ag963
ag797
ag269
ag464
ag125
ag84
ag356
ag509
ag550
ag432
ag401
ag916
ag863
ag694
ag556
ag518
ag382
ag342
ag323
ag661
ag908
ag1025
ag213
ag753
ag613
ag553
ag951
ag404
ag576
ag720
ag280
ag113
ag664
ag111
ag167
ag738
ag504
ag48
ag1002
ag382
ag141
ag877
ag858
ag167
ag967
ag399
ag215
ag440
ag171
ag1061
ag431
ag794
ag804
ag948
ag799
ag794
ag415
ag417
ag163
ag927
ag782
ag493
ag438
ag68
ag63
ag661
ag771
ag393
ag556
ag1059
ag582
ag626
ag698
ag986
ag263
ag793
ag615
ag755
ag563
ag111
ag871
ag94
ag923
ag713
ag661
ag262
ag981
ag227
ag86
ag325
ag69
ag828
ag387
ag335
ag438
ag377
ag1040
ag866
ag659
ag338
ag603
ag573
ag646
ag11
ag856
ag645
ag747
ag747
ag890
ag598
ag421
ag31
ag1024
ag329
ag503
ag565
ag15
ag616
ag185
ag543
ag900
ag509
ag1062
ag287
ag316
ag40
ag632
ag926
ag535
ag671
ag173
ag340
ag139
ag486
ag490
ag545
ag757
ag380
ag78
ag859
ag234
ag879
ag431
ag409
ag628
ag800
ag115
ag590
ag734
ag268
ag12
ag758
ag629
ag28
ag562
ag619
ag244
ag217
ag447
ag217
ag851
ag918
ag1024
ag460
ag588
ag538
ag463
ag699
ag875
ag651
ag75
ag61
ag770
ag634
ag365
ag288
ag405
ag507
ag252
ag905
ag716
ag341
ag80
ag742
ag1012
ag610
ag409
ag162
ag1056
ag302
ag753
ag329
ag615
ag882
ag778
ag955
ag704
ag173
ag305
ag329
a(lp1066
I94
aI64
aag1052
ag511
ag952
ag176
ag445
a(lp1067
I54
aI12
aag971
ag64
ag120
ag934
ag242
ag807
ag835
ag391
ag246
ag796
ag645
ag18
ag138
ag480
ag1036
ag610
ag23
ag997
ag1053
ag63
ag219
ag165
ag468
ag57
ag899
ag45
ag202
ag269
ag798
ag655
ag218
ag323
ag447
ag92
ag987
ag205
ag363
ag878
ag181
ag869
ag460
ag5
ag454
ag524
ag159
ag616
ag336
ag896
ag967
ag418
ag1009
ag572
ag494
ag760
ag445
ag840
ag311
ag820
ag562
ag1026
ag925
ag409
ag949
ag248
ag517
ag519
ag797
ag452
ag205
ag984
ag813
ag380
ag1053
ag462
ag284
ag713
ag103
ag576
ag935
ag457
ag237
ag7
ag659
ag925
ag200
ag943
ag475
ag176
ag941
ag185
ag422
ag959
ag551
ag594
ag99
ag739
ag957
ag171
ag168
ag172
ag551
ag525
ag343
ag809
ag631
ag270
ag1046
ag569
ag283
ag92
ag379
ag213
ag133
ag792
ag604
ag214
ag39
ag705
ag516
ag495
ag259
ag392
ag341
ag369
ag532
ag552
ag956
ag778
ag994
ag865
ag410
ag47
ag1059
ag3
ag338
ag887
ag638
ag1066
ag50
ag618
ag920
ag441
ag659
ag904
ag843
ag555
ag936
ag845
ag492
ag842
ag668
ag180
ag181
ag739
ag378
ag756
ag56
ag703
ag1016
ag206
ag819
ag220
ag376
ag368
ag43
ag568
ag462
ag728
ag139
ag518
ag438
ag441
ag954
ag172
ag374
ag6
ag534
ag660
ag983
ag35
ag254
ag57
ag768
ag584
ag609
ag765
ag543
ag367
ag795
ag462
ag189
ag728
ag1008
ag765
ag773
ag131
ag821
ag960
ag630
ag542
ag99
ag658
a(lp1068
I94
aI63
aag258
ag412
ag885
ag886
ag933
ag165
ag690
ag720
ag775
ag821
ag86
ag607
ag786
ag211
ag407
ag506
ag509
ag570
ag463
ag71
ag963
ag956
ag339
ag29
ag152
ag527
ag196
ag58
ag542
ag673
ag387
ag815
ag128
ag667
ag435
ag1034
ag229
ag97
ag430
ag464
ag153
ag827
ag588
a(lp1069
I42
aI8
aag421
ag208
ag312
ag281
ag764
ag56
ag382
ag151
ag956
ag928
ag933
ag839
ag870
ag679
ag499
ag176
ag454
ag558
ag910
ag1032
ag896
ag1003
ag206
ag170
ag850
ag96
ag92
ag475
ag809
ag786
ag186
ag71
ag957
ag709
ag395
ag725
ag889
ag392
ag317
ag152
ag1052
ag233
ag491
ag668
ag531
ag573
ag949
ag823
ag415
ag532
ag1041
ag176
ag55
ag689
ag345
ag662
ag459
ag121
ag463
ag840
ag763
ag1049
ag656
ag841
ag732
ag549
ag233
ag439
ag534
ag121
ag339
ag813
ag859
ag1026
ag806
ag413
ag449
ag931
ag75
ag936
ag701
ag399
ag385
ag456
ag633
ag615
ag649
ag281
ag213
ag273
ag218
ag697
ag295
ag913
ag910
ag861
ag159
ag292
ag872
ag762
ag171
ag464
ag205
ag629
ag285
ag178
ag360
ag997
ag810
ag431
ag47
ag747
ag385
ag521
ag908
ag517
ag462
ag864
ag139
ag690
ag1038
ag90
ag263
ag852
ag272
ag288
ag700
ag437
ag415
ag1037
ag69
ag1017
ag913
ag994
ag246
ag594
ag356
ag469
ag89
ag660
ag881
ag386
ag657
ag279
ag54
ag613
ag26
ag620
ag1010
ag278
ag884
ag515
ag413
ag960
ag635
ag129
ag218
ag429
ag574
ag135
ag660
ag222
ag770
ag1024
ag670
ag1050
ag320
ag488
ag492
ag627
ag116
a(lp1070
I94
aI72
aag506
ag729
ag307
ag397
ag164
ag934
ag535
ag616
ag825
ag663
ag167
ag976
ag265
ag224
ag966
ag902
ag483
ag157
ag832
ag642
ag322
ag455
ag679
ag250
ag220
ag295
ag779
ag536
ag343
ag658
ag714
ag1011
ag1007
ag927
ag564
ag848
ag49
ag397
ag507
ag530
ag946
ag941
ag761
ag551
ag36
ag425
ag976
ag700
ag1027
ag207
ag959
ag858
ag773
ag884
ag361
ag24
ag704
ag348
ag1014
ag688
ag125
ag1012
ag736
ag407
ag937
ag107
ag703
ag944
ag708
ag555
ag769
ag587
ag24
ag726
ag837
ag678
ag304
ag66
ag674
ag182
ag768
ag612
ag654
ag442
ag523
ag868
ag741
ag567
ag245
ag1063
ag762
ag942
ag877
ag65
ag1005
ag322
ag979
ag665
ag91
ag162
ag729
ag85
ag344
ag51
ag649
ag856
ag511
ag290
ag270
ag1036
ag714
ag403
ag924
ag385
ag533
ag357
ag590
ag337
ag91
ag62
ag139
ag174
ag928
ag152
ag133
ag50
ag30
ag599
ag470
ag460
ag417
ag739
ag546
ag184
ag275
ag619
ag534
ag1010
ag570
ag1038
ag412
ag990
ag886
ag300
ag615
ag1051
ag53
ag649
ag1049
ag132
ag388
ag1068
ag1021
ag529
ag936
ag944
ag118
ag107
ag750
ag833
ag823
ag103
ag180
ag1022
ag1002
ag842
ag473
ag242
ag957
ag674
ag626
ag3
ag895
ag1047
ag736
ag230
ag848
ag734
ag809
ag373
ag689
ag687
ag411
ag472
ag852
ag163
ag727
ag1060
ag659
ag510
ag34
ag760
ag56
ag878
ag213
ag1053
ag90
ag78
ag326
ag884
ag67
ag83
ag83
ag911
ag820
ag106
ag306
ag175
ag136
ag484
ag812
ag240
ag698
ag642
ag971
ag751
ag692
ag703
ag714
ag86
ag282
ag374
ag887
ag343
ag1035
ag210
ag78
ag132
ag669
ag997
ag92
ag765
ag187
ag429
ag133
ag936
ag7
ag409
ag75
ag858
ag432
ag447
ag802
ag685
ag819
ag636
ag936
ag393
ag623
ag252
ag239
ag951
ag1014
ag162
ag336
ag945
ag227
ag312
ag964
ag1022
ag970
ag488
ag194
ag799
ag43
ag629
ag103
ag773
ag1036
ag265
ag62
ag661
ag852
ag805
ag684
ag202
ag802
ag8
ag851
ag288
ag430
ag135
ag1058
ag199
ag562
ag670
ag423
ag376
ag482
ag631
ag427
ag1014
ag77
ag302
ag875
ag875
ag283
ag517
ag1061
ag885
ag461
ag50
ag337
ag612
ag372
ag1056
ag380
ag622
ag490
ag363
ag416
ag956
ag577
ag781
ag205
ag768
ag98
ag163
ag2
ag75
ag490
ag212
ag757
ag1058
ag354
ag714
ag1036
ag536
ag112
ag642
ag717
ag750
ag867
ag544
ag326
ag797
ag386
ag772
ag161
ag247
ag848
ag469
ag1037
ag835
ag1027
ag815
ag234
ag505
ag477
ag302
ag937
ag463
ag448
ag798
ag556
ag1001
ag255
ag554
ag955
ag553
ag888
ag511
ag176
ag690
ag59
ag237
ag829
ag830
ag886
ag490
ag510
ag613
ag418
ag633
ag51
ag596
ag420
ag830
ag3
ag702
ag263
ag740
ag425
ag685
ag75
ag994
ag73
ag1001
ag509
ag33
ag859
ag521
ag669
ag701
ag820
ag764
ag220
ag97
ag263
ag481
ag1033
ag400
ag31
ag128
ag188
ag631
ag26
ag1069
ag616
ag100
ag352
ag848
ag211
ag585
ag960
ag934
ag1023
ag167
ag907
ag877
ag1037
ag784
ag230
ag144
ag859
ag76
ag62
ag315
ag965
ag914
ag743
ag848
ag311
ag519
ag623
ag770
ag348
ag285
ag889
ag752
ag137
ag346
ag896
ag819
ag194
ag499
ag964
ag245
ag852
ag247
ag438
ag131
ag806
ag665
ag71
ag623
ag99
ag361
ag489
ag494
ag194
ag921
ag640
ag155
ag448
ag921
ag896
ag126
ag541
ag495
ag964
ag310
ag256
ag158
ag266
ag1002
ag112
ag796
ag1053
ag537
ag168
ag937
ag364
ag510
ag385
ag39
ag745
ag889
ag841
ag879
ag603
ag1070
ag907
ag511
ag958
ag867
ag424
ag530
ag174
ag953
ag319
ag941
ag44
ag169
ag627
ag698
ag817
ag283
ag435
ag915
ag890
ag897
ag486
ag318
ag379
ag900
ag448
ag574
ag178
ag295
ag189
ag718
ag164
ag848
ag833
ag154
ag290
ag379
ag584
ag756
ag931
ag696
ag97
ag969
ag758
ag202
ag266
ag974
ag95
ag341
ag267
ag926
ag113
ag140
ag533
ag543
ag523
ag559
ag951
ag195
ag82
ag685
ag72
ag1046
ag670
ag989
ag701
ag97
ag1040
ag182
ag318
ag452
ag675
ag965
ag359
ag357
ag834
ag276
ag541
ag570
ag494
ag372
ag782
ag940
ag753
ag5
ag1032
ag1055
ag792
ag971
ag288
ag1021
ag574
ag681
ag566
ag539
ag177
ag177
ag3
ag307
ag456
ag863
ag146
ag944
ag128
ag82
ag148
ag518
ag553
ag398
ag223
ag265
ag333
ag866
ag199
ag56
ag405
ag780
ag1064
ag547
ag746
ag396
ag218
ag738
ag389
ag21
ag390
ag667
ag825
ag111
ag47
ag1022
ag865
ag696
ag708
ag1060
ag906
ag377
ag168
ag134
ag263
ag937
ag915
ag454
ag851
ag866
ag631
ag777
ag960
ag617
ag351
ag28
ag1039
ag92
ag948
ag182
ag789
ag831
ag153
ag1067
ag955
ag670
ag269
ag1018
ag1032
ag530
ag318
ag355
ag958
a(lp1071
I94
aI64
aag913
ag637
ag798
ag327
ag109
ag167
ag260
ag753
ag23
ag357
ag737
ag214
ag308
ag715
ag73
ag1002
ag330
ag273
ag755
ag1022
ag366
ag392
ag125
ag793
ag277
ag476
ag646
ag896
ag20
ag278
ag698
ag1057
ag308
ag166
ag9
ag65
ag737
ag992
ag978
ag312
ag501
ag702
ag443
ag329
ag551
ag910
ag466
ag871
ag507
ag77
ag403
ag244
ag140
ag463
ag436
ag107
ag636
ag910
ag936
ag86
ag656
ag380
a(lp1072
I93
aI51
aag478
ag883
ag423
ag119
ag497
ag138
ag638
ag433
ag114
ag88
ag948
ag240
ag783
ag989
ag793
ag373
a(lp1073
I91
aI56
aag545
ag865
ag60
ag104
ag549
ag158
ag654
ag317
ag912
ag666
ag85
ag147
ag627
ag726
ag612
ag853
ag567
ag987
ag962
ag316
ag196
ag403
ag7
ag81
ag436
ag323
ag707
ag79
ag353
ag903
ag1018
ag650
ag396
ag964
ag645
ag490
ag559
ag814
ag379
ag17
ag856
ag192
ag96
ag469
ag638
ag494
ag983
ag301
ag1042
ag1072
ag249
ag120
ag463
ag41
ag957
ag303
ag209
ag393
ag804
ag315
ag467
ag495
ag874
ag375
ag302
ag188
ag158
ag218
ag1015
ag971
ag1035
ag799
ag892
ag376
ag568
ag736
ag933
ag853
ag827
ag477
ag339
ag868
ag546
ag371
ag608
ag423
ag348
ag1033
ag874
ag382
ag864
ag998
ag1060
ag632
ag852
ag66
ag630
ag138
ag790
ag1072
ag527
ag479
ag639
ag812
ag1056
ag361
ag1026
ag283
ag355
ag315
ag880
ag6
ag112
ag671
ag719
ag480
ag137
ag775
ag419
ag87
ag353
ag446
ag654
ag53
ag932
ag859
ag585
ag298
ag797
ag567
ag605
ag307
ag473
ag534
ag214
ag467
ag999
ag967
ag759
ag661
ag842
ag828
ag578
ag462
ag686
ag321
ag426
ag711
ag816
ag414
ag349
ag286
ag418
ag156
ag716
ag758
ag55
ag12
ag985
ag318
ag687
ag1073
ag789
ag872
ag480
ag45
ag900
ag529
ag894
ag880
ag298
ag179
ag377
ag63
ag154
ag356
ag641
ag283
ag685
ag39
ag950
ag604
ag640
ag267
ag133
ag201
ag379
ag1044
ag898
ag188
ag750
ag182
ag577
ag126
ag694
ag598
ag655
ag66
ag871
ag1057
ag814
ag566
ag1051
ag165
ag538
ag338
ag443
ag866
ag283
ag568
ag892
ag297
ag749
ag148
ag392
ag847
ag891
ag195
ag105
ag886
ag882
ag658
ag799
ag375
ag286
ag373
ag623
ag751
ag815
ag201
ag1038
ag986
ag255
ag459
ag100
ag423
ag445
ag84
ag773
ag623
ag635
ag446
ag937
ag859
ag308
ag680
ag237
ag1007
ag385
ag104
ag909
ag994
ag445
ag1061
ag49
ag154
ag961
ag197
ag312
ag364
ag366
ag7
ag122
ag668
ag520
ag865
ag25
ag677
ag554
ag890
ag1059
ag69
ag372
ag124
ag937
ag297
ag804
ag116
ag783
ag30
ag603
ag730
ag1018
ag528
ag857
ag1062
ag559
ag148
ag770
ag831
ag923
ag652
ag425
ag544
ag145
ag753
ag126
ag621
ag629
ag691
ag154
ag1053
ag462
ag382
ag914
ag927
ag936
ag715
ag860
ag26
ag947
ag325
ag547
ag296
ag147
ag970
ag258
ag63
ag668
ag546
ag441
ag25
ag502
ag1055
ag428
ag705
ag722
ag265
ag62
ag1066
ag985
ag126
ag614
ag240
ag1008
ag30
ag229
ag529
ag12
ag295
ag302
ag745
ag799
ag638
ag614
ag670
ag184
ag1051
ag465
ag449
ag249
ag892
ag93
ag705
ag166
ag781
ag765
ag543
ag438
ag654
ag103
ag196
ag656
ag89
ag403
ag455
ag245
ag360
ag467
ag502
ag902
ag118
ag770
ag137
ag95
ag243
ag479
ag175
ag533
ag978
ag296
ag384
ag128
ag349
ag721
ag252
ag659
ag324
ag375
ag1006
ag681
ag757
ag478
ag166
ag435
ag1020
ag44
ag113
ag870
ag236
ag379
ag698
ag679
ag852
ag334
ag848
ag584
ag611
ag381
ag922
ag903
ag1072
ag777
ag1021
ag128
ag59
ag840
ag865
ag581
ag555
ag77
ag766
ag878
ag665
ag430
ag647
ag351
ag1046
ag897
ag262
ag728
ag919
ag314
ag1023
ag676
ag738
ag631
ag84
ag512
ag754
ag55
ag754
ag132
ag839
ag775
ag726
ag122
ag629
ag625
ag904
ag35
ag188
ag210
ag521
ag848
ag437
ag757
ag764
ag420
ag680
ag101
ag1002
ag910
ag238
ag719
ag793
ag577
ag1030
ag963
ag354
ag816
ag120
ag475
ag72
ag799
ag259
ag479
ag541
ag753
ag672
ag391
ag538
ag187
ag246
ag596
ag421
ag724
ag1022
ag25
ag819
ag403
ag781
ag76
ag617
ag623
ag592
ag162
ag569
ag63
ag706
ag310
ag407
ag11
ag487
ag801
ag840
ag957
ag1045
ag550
ag480
ag434
ag421
ag105
ag495
ag722
ag468
ag242
ag464
ag596
ag281
ag384
ag478
ag804
ag266
ag374
ag343
ag837
ag176
ag776
ag428
ag210
ag867
ag666
ag765
ag560
ag686
ag605
ag1002
ag627
ag968
ag846
ag389
ag388
ag299
ag680
ag5
ag1019
ag184
ag124
ag848
ag378
ag374
ag305
ag959
ag76
ag928
ag502
ag27
ag628
ag629
ag1007
ag559
ag498
ag1003
ag409
ag526
ag550
ag78
ag162
ag69
ag650
ag106
ag752
ag781
ag382
ag171
ag298
ag803
ag395
ag243
ag488
ag692
ag492
ag866
ag305
ag627
ag611
ag951
ag575
ag268
ag569
ag216
ag242
ag834
ag920
ag996
ag917
ag857
ag219
ag382
ag498
ag398
ag807
ag921
ag981
ag951
ag10
ag871
ag814
ag574
ag494
ag451
ag126
ag51
ag363
ag295
ag594
ag649
ag24
ag317
ag486
ag825
ag917
ag270
ag483
ag468
ag782
ag1020
ag943
ag550
ag1051
ag352
ag241
ag450
ag110
ag312
ag259
ag224
ag975
ag884
ag203
ag310
ag257
ag1014
ag119
ag748
ag197
ag67
ag148
ag852
ag556
ag870
ag484
ag565
ag459
ag21
ag719
ag612
ag767
ag140
ag251
ag37
ag572
ag509
ag919
ag927
ag617
ag851
ag947
ag696
ag320
ag501
ag818
ag540
ag349
ag490
ag657
ag189
ag556
ag197
ag196
ag698
ag628
ag278
ag1029
ag229
ag69
ag859
ag763
ag80
ag418
ag111
ag180
ag56
ag907
ag802
ag463
ag1028
ag163
ag260
ag998
ag712
ag180
ag659
ag911
ag889
ag522
ag910
ag828
ag231
ag412
ag814
ag161
ag830
ag447
ag224
ag740
ag123
ag77
ag837
ag188
ag651
ag741
ag1048
ag8
ag882
ag32
ag859
ag290
ag655
ag607
ag530
ag882
ag724
ag837
ag744
ag276
ag467
ag891
ag353
ag772
ag970
ag1040
ag205
ag708
ag417
ag514
ag946
ag609
ag375
ag191
ag479
ag527
ag379
ag788
ag12
ag788
ag748
ag543
ag502
ag179
ag329
ag6
ag468
ag624
ag580
ag365
ag839
ag975
ag25
ag770
ag796
ag615
ag323
ag829
ag449
ag519
ag514
ag1021
ag937
ag612
ag332
ag159
ag397
ag303
ag544
ag706
ag496
ag474
ag43
ag1010
ag655
ag988
ag438
ag216
ag205
ag602
ag614
ag1030
ag277
ag88
ag563
ag1042
ag1009
ag406
ag24
ag317
ag536
ag330
ag530
ag228
ag533
ag366
ag988
ag1054
ag278
ag712
ag997
ag154
ag729
ag63
ag1001
ag951
ag913
ag210
ag789
ag352
ag353
ag831
ag596
ag70
ag186
ag150
ag518
ag581
ag602
ag535
ag1000
ag976
ag174
ag195
ag234
ag478
ag314
ag726
ag734
ag533
ag394
ag482
ag913
ag623
ag447
ag660
ag869
ag162
ag880
ag969
ag560
ag968
ag525
ag864
ag102
ag678
ag899
ag765
ag244
ag370
ag120
ag390
ag587
ag399
ag604
ag119
ag98
ag739
ag892
ag493
ag332
ag471
ag523
ag94
ag611
ag1023
ag358
ag386
ag143
ag937
ag790
ag514
ag839
ag25
ag1038
ag704
ag832
ag417
ag941
ag814
ag2
ag464
ag641
ag958
ag586
ag147
ag545
ag1001
ag862
ag137
ag97
ag589
ag910
ag336
ag226
ag508
ag306
ag230
ag444
ag658
ag526
ag327
ag1044
ag892
ag1062
ag28
ag689
ag377
ag953
ag911
ag346
ag484
ag815
ag1069
ag1053
ag662
ag628
ag910
ag739
ag39
ag1063
ag183
ag551
ag149
ag265
ag712
ag856
ag187
ag883
ag166
ag1054
ag1003
ag230
ag467
ag798
ag1052
ag336
ag460
ag559
ag405
ag403
ag257
ag525
ag902
ag392
ag182
ag577
ag4
ag693
ag669
ag202
ag335
ag566
ag571
ag213
ag326
ag846
ag853
ag172
ag974
ag115
ag935
ag637
ag908
ag254
ag592
ag37
ag819
ag889
ag1018
ag858
a(lp1074
I70
aI20
aag820
ag1039
ag869
ag436
ag64
ag116
ag790
ag60
ag897
ag605
ag883
ag985
ag653
ag295
ag514
ag662
ag374
ag752
ag166
ag962
ag297
ag790
ag837
ag465
ag525
ag636
ag657
ag719
ag503
ag517
ag680
ag562
ag860
ag506
ag442
ag1032
ag618
ag394
ag320
ag448
ag1047
ag26
ag463
ag830
ag212
ag626
ag124
ag734
ag453
ag448
ag212
ag681
ag640
ag706
ag331
ag916
ag23
ag245
ag235
ag456
ag123
ag1033
ag693
ag751
ag849
ag719
ag487
ag836
ag614
ag535
ag256
ag451
ag226
ag12
ag735
ag1046
ag564
ag143
ag293
ag1055
ag157
ag246
ag201
ag586
ag374
ag68
ag1063
ag260
ag383
ag273
ag613
ag596
ag781
ag318
ag311
ag428
ag81
ag989
ag619
ag38
ag313
ag1029
ag353
ag302
ag130
ag830
ag715
ag172
ag222
ag794
ag523
ag932
ag353
ag843
ag587
ag258
ag769
ag423
ag305
ag766
ag757
ag375
ag605
ag547
ag705
ag126
ag159
ag164
ag155
ag509
ag81
ag499
ag595
ag581
ag516
ag151
ag236
ag158
ag662
ag529
ag426
ag658
ag355
ag841
ag1020
ag1064
ag625
ag12
ag1012
ag156
ag387
ag186
ag187
ag717
ag150
ag313
ag180
ag720
ag4
ag917
ag614
ag661
ag866
ag789
ag572
ag404
ag362
ag36
ag1038
ag922
ag32
ag568
ag473
ag981
ag1057
ag922
ag261
ag519
ag26
ag491
ag723
ag855
ag701
ag825
ag409
ag532
ag403
ag19
ag276
ag870
ag636
ag795
ag632
ag613
ag302
ag399
ag93
ag652
ag939
ag616
ag413
ag141
ag601
ag1065
ag242
ag95
ag973
ag344
ag245
ag134
ag1069
ag810
ag239
ag55
ag660
ag880
ag982
ag759
ag373
ag514
ag670
ag860
ag834
ag167
ag993
ag219
ag888
ag355
ag15
ag966
ag314
ag55
ag193
ag499
ag482
ag819
ag511
ag1013
ag854
ag591
ag601
ag474
ag784
ag477
ag212
ag542
ag434
ag537
ag190
ag836
ag851
ag774
ag474
ag378
ag1068
ag233
ag253
ag588
ag983
ag15
ag121
ag146
ag918
ag231
ag811
ag20
ag739
ag1019
ag716
ag236
ag643
ag596
ag240
ag891
ag606
ag263
ag221
ag550
ag480
ag245
ag153
ag569
ag144
ag488
ag986
ag249
ag798
ag899
ag462
ag879
ag801
ag19
ag119
ag290
ag341
ag811
ag376
ag479
ag577
ag625
ag463
ag299
ag250
ag412
ag996
ag112
ag861
ag728
ag305
ag706
ag149
ag3
ag586
ag967
ag949
ag4
ag599
ag386
ag593
ag215
ag380
ag1019
ag388
ag993
ag770
ag310
ag618
ag791
ag78
ag840
ag341
ag304
ag8
ag415
ag373
ag437
ag199
ag810
ag53
ag427
ag715
ag910
ag460
ag1053
ag854
ag171
ag745
ag688
ag978
ag495
ag943
ag908
ag874
ag925
ag677
ag1044
ag671
ag1007
ag268
ag105
ag584
ag636
ag658
ag603
ag764
ag100
ag804
ag541
ag229
ag391
ag515
ag600
ag828
ag950
ag855
ag650
ag1062
ag418
ag975
ag1017
ag1033
ag209
ag519
ag362
ag922
ag1063
ag772
ag593
ag466
ag936
ag450
ag803
ag76
ag184
ag631
ag70
ag398
ag208
ag981
ag444
ag385
ag247
ag360
ag93
ag863
ag42
ag940
ag9
ag684
ag492
ag394
ag181
ag660
ag245
ag164
ag548
ag175
ag619
ag1011
ag528
ag976
ag168
ag822
ag655
ag931
ag168
ag671
ag775
ag307
ag1031
ag283
ag183
ag62
ag395
ag961
ag659
ag601
ag814
ag409
ag654
ag286
ag442
ag799
ag1015
ag101
ag772
ag529
ag849
ag593
ag923
ag1019
ag620
ag53
ag140
ag282
ag521
ag175
ag828
ag526
ag573
ag287
ag272
ag943
ag306
ag937
ag811
ag361
ag92
ag345
ag115
ag682
ag1011
ag733
ag429
ag1072
ag253
ag737
ag47
ag504
ag276
ag277
ag525
ag78
ag223
ag1021
ag360
ag390
ag894
ag843
ag145
ag801
ag196
ag47
ag227
ag806
ag220
ag953
ag1073
ag870
ag598
ag534
ag759
ag667
ag67
ag970
ag295
ag883
ag548
ag234
ag315
ag21
ag210
ag746
ag393
ag621
ag409
ag327
ag203
ag147
ag467
ag718
ag574
ag139
ag239
ag733
ag300
ag401
ag772
ag338
ag331
ag280
ag882
ag704
ag306
ag955
ag849
ag990
ag129
ag100
ag720
ag803
ag731
ag69
ag134
ag847
ag373
ag545
ag260
ag834
ag387
ag901
ag758
ag989
ag470
ag360
ag458
ag50
ag476
ag183
ag227
ag967
ag551
ag918
ag270
ag1034
ag277
ag837
ag529
ag265
ag939
ag164
ag146
ag320
ag441
ag812
ag882
ag89
ag438
ag745
ag351
ag203
ag163
ag459
ag901
ag494
ag327
ag952
ag96
ag350
ag603
ag536
ag102
ag164
ag156
ag757
ag128
ag971
ag131
ag710
ag576
ag518
ag742
ag966
ag740
ag415
ag221
ag492
ag668
ag474
ag660
ag357
ag31
ag684
ag670
ag145
ag814
ag459
ag162
ag606
ag340
ag90
ag167
ag769
ag959
ag180
ag783
ag985
ag41
ag194
ag427
ag883
ag618
ag115
ag1040
ag390
ag629
ag209
ag917
ag470
ag1022
ag862
ag671
ag993
ag585
ag46
ag874
ag200
ag1032
ag898
ag202
ag89
ag432
ag875
ag48
ag100
ag731
ag717
ag661
ag224
ag982
ag576
ag859
ag1012
ag471
ag146
ag995
ag969
ag89
ag985
ag444
ag970
ag430
ag763
ag918
ag227
ag947
ag342
ag544
ag803
ag819
ag645
ag980
ag894
ag535
ag507
ag731
ag1001
ag989
ag1000
ag786
ag616
ag1036
ag221
ag114
ag702
ag159
ag921
ag225
ag879
ag771
ag519
ag487
ag367
ag641
ag786
ag890
ag419
ag1017
ag328
ag491
ag55
ag1054
ag391
ag168
ag691
ag898
ag256
ag181
ag34
ag847
ag477
ag183
ag646
ag72
ag862
ag703
ag482
ag38
ag513
ag528
ag179
ag42
ag226
ag281
ag783
ag105
ag689
ag300
ag526
ag102
ag576
ag633
ag1044
ag488
ag1006
ag124
ag1007
ag884
ag571
ag909
ag108
ag618
ag1054
ag195
ag896
ag660
ag315
ag583
ag490
ag489
ag154
ag682
ag149
ag278
ag415
ag536
ag881
ag978
ag324
ag40
ag284
ag301
ag600
ag294
ag1053
ag978
ag653
ag270
ag200
ag369
ag482
ag1073
ag513
ag642
ag671
ag946
ag448
ag137
ag1030
ag505
ag583
ag183
ag803
ag419
ag558
ag355
ag248
ag640
ag85
ag798
ag92
ag781
ag188
ag395
ag941
ag689
ag157
ag318
ag556
ag328
ag945
ag879
ag663
ag203
ag724
ag1064
ag207
ag57
ag183
ag52
ag1010
ag107
ag1034
ag134
ag97
ag340
ag600
ag723
ag923
ag591
ag941
ag350
ag616
ag421
ag616
ag13
ag85
ag363
ag384
ag122
ag860
ag594
ag605
ag281
ag585
ag672
ag146
ag419
ag761
ag436
ag961
ag827
ag678
ag847
ag541
ag426
ag929
ag466
ag875
ag943
ag966
ag832
ag957
ag254
ag906
ag906
ag753
ag75
ag827
ag451
ag737
ag564
ag630
ag385
ag929
ag548
ag314
ag1044
ag709
ag11
ag514
ag703
ag766
ag375
ag488
ag522
ag745
ag596
ag670
ag10
ag701
ag66
ag883
ag436
ag893
ag277
ag540
ag38
ag935
ag697
ag875
ag562
ag881
ag10
ag348
ag906
ag142
ag428
ag997
ag668
ag58
ag982
ag989
ag901
ag787
ag786
ag293
ag132
ag899
ag1005
ag559
ag578
ag561
ag1023
ag13
ag1046
ag416
ag186
ag867
ag351
ag568
ag387
ag842
ag18
ag214
ag333
ag325
ag642
ag480
ag303
ag17
ag477
ag1024
ag686
ag202
ag1019
ag983
ag321
ag343
ag271
ag404
ag63
ag559
ag68
ag1028
ag421
ag913
ag810
ag449
ag105
ag1014
ag703
ag174
ag280
ag965
ag455
ag1019
ag952
ag615
ag951
ag174
ag569
ag924
ag505
ag632
ag743
ag349
ag764
ag91
ag38
ag290
ag121
ag24
ag935
ag84
ag900
ag850
ag200
ag627
ag996
ag625
ag1016
ag936
ag337
ag262
ag1040
ag168
ag14
ag712
ag241
ag969
ag710
ag1000
ag431
ag869
ag1013
ag792
ag883
ag337
ag266
ag1044
ag417
ag665
ag815
ag160
ag221
ag1072
ag75
ag921
ag36
ag85
ag484
ag1031
ag728
ag679
ag457
ag364
ag483
ag667
ag841
ag794
ag511
ag78
ag869
ag842
ag861
ag444
ag879
ag682
ag235
ag112
ag369
ag32
ag305
ag890
ag689
ag901
ag742
ag918
ag667
ag192
ag462
ag886
ag875
ag12
ag140
ag206
ag271
ag73
ag10
ag1013
ag581
ag115
ag776
ag212
ag256
ag897
ag144
ag388
ag576
ag837
ag382
ag155
ag658
ag118
ag1005
ag911
ag428
ag597
ag904
ag977
ag381
ag763
ag223
ag481
ag358
ag226
ag616
ag498
ag336
ag651
ag800
ag571
ag778
ag126
ag1040
ag508
ag973
ag1070
ag739
ag370
ag631
ag122
ag140
ag827
ag650
ag498
ag913
ag85
ag72
ag359
ag70
ag159
ag723
ag864
ag913
ag552
ag897
ag339
ag114
ag784
ag551
ag955
ag1021
ag20
ag581
ag89
ag211
ag1070
ag919
ag466
ag257
ag678
ag932
ag1069
ag946
ag525
ag765
ag956
ag686
ag897
ag237
ag996
ag859
ag224
ag1014
ag53
ag610
ag238
ag323
ag856
ag134
ag1069
ag182
ag394
ag694
ag1006
ag147
ag263
ag236
ag363
ag459
ag561
ag718
ag656
ag936
ag509
ag671
ag571
ag365
ag122
ag15
ag96
ag729
ag564
ag1063
ag642
ag582
ag507
ag918
ag223
ag94
ag417
ag999
ag638
ag903
ag559
ag920
ag103
ag523
ag151
ag312
ag84
ag409
ag353
ag568
ag36
ag442
ag954
ag466
ag122
ag939
ag967
ag849
ag179
ag784
ag1031
ag905
ag113
ag532
ag874
ag346
ag1046
ag1060
ag1025
ag48
ag239
ag788
ag989
ag162
ag113
ag665
ag823
ag959
ag1000
ag821
ag196
ag31
ag660
ag464
ag665
ag707
ag855
ag659
ag656
ag740
ag966
ag1066
ag729
ag399
ag552
ag292
ag145
ag941
ag457
ag213
ag381
ag272
ag395
ag488
ag774
ag572
ag792
ag446
ag551
ag628
ag621
ag101
ag139
ag89
ag622
ag71
ag260
ag820
ag21
ag517
ag1067
ag517
ag846
ag863
ag582
ag1036
ag707
ag404
ag586
ag1062
ag287
ag210
ag799
ag772
ag726
ag219
ag461
ag279
ag931
ag312
ag75
ag69
ag1048
ag70
ag345
ag774
ag850
ag674
ag905
ag150
ag7
ag432
ag593
ag82
ag558
ag176
ag814
ag785
ag556
ag914
ag983
ag810
ag958
ag467
ag219
ag33
ag836
ag50
ag381
ag617
ag215
ag700
ag453
ag819
ag182
ag478
ag346
ag707
ag880
ag758
ag884
ag776
ag758
ag1023
ag576
ag209
ag973
ag507
ag96
ag234
ag548
ag580
ag835
ag935
ag783
ag682
ag88
ag996
ag537
ag373
ag715
ag362
ag448
ag258
ag344
ag328
ag636
ag971
ag6
ag1024
ag683
ag243
ag575
ag56
ag889
ag358
ag177
ag284
ag1072
ag949
ag1037
ag506
ag1009
ag8
ag647
ag852
ag1060
ag340
ag895
ag912
ag100
ag729
ag212
ag951
ag939
ag536
ag1055
ag857
ag224
ag741
ag167
ag500
ag970
ag11
ag635
ag400
ag360
ag209
ag569
ag63
ag109
ag210
ag955
ag391
ag790
ag876
ag235
ag37
ag928
ag636
ag374
ag591
ag533
ag614
ag400
ag180
ag1040
ag566
ag188
ag226
ag157
ag578
ag968
ag884
ag794
ag853
ag737
ag749
ag586
ag1070
ag333
ag1070
ag688
ag546
ag1033
ag234
ag940
ag769
ag275
ag344
ag221
ag916
ag302
ag185
ag1052
ag909
ag692
ag440
ag162
ag588
ag907
ag419
ag214
ag345
ag206
ag344
ag879
ag137
ag602
ag908
ag266
ag157
ag186
ag592
ag737
ag120
ag224
ag477
ag810
ag221
ag451
ag96
ag415
ag850
ag284
ag150
ag11
ag986
ag460
ag217
ag633
ag392
ag474
ag409
ag742
ag263
ag333
ag1059
ag729
ag539
ag717
ag238
ag253
ag371
ag1002
ag56
ag863
ag334
ag382
ag261
ag870
ag367
ag392
ag255
ag708
ag659
ag258
ag696
ag983
ag511
ag316
ag172
ag220
ag480
ag754
ag1047
ag187
ag358
ag652
ag62
ag10
ag110
ag534
ag698
ag960
ag900
ag98
ag1063
ag525
ag208
ag370
ag1042
ag54
ag1009
ag471
ag552
ag274
ag831
ag574
ag576
ag266
ag87
ag742
ag169
ag363
ag402
ag925
ag8
ag155
ag587
ag1054
ag259
ag357
ag976
ag856
ag778
ag251
ag118
ag725
ag916
ag605
ag206
ag318
ag727
ag618
ag589
ag75
ag77
ag412
ag156
ag750
ag104
ag498
ag177
ag666
ag711
ag1028
ag896
ag546
ag808
ag176
ag984
ag771
ag128
ag719
ag1051
ag212
ag391
ag148
ag156
ag871
ag260
ag987
ag445
ag510
ag1042
ag208
ag949
ag559
ag724
ag29
ag1059
ag411
ag318
ag397
ag142
ag802
ag614
ag1039
ag5
ag104
ag59
ag86
ag992
ag317
ag54
ag842
ag462
ag16
ag334
ag926
ag712
ag73
ag402
ag784
ag148
ag969
ag426
ag206
ag236
ag314
ag713
ag245
ag151
ag487
ag427
ag193
ag168
ag183
ag97
ag436
ag398
ag1033
ag438
ag758
ag537
ag1007
ag451
ag975
ag834
ag509
ag481
ag458
ag338
ag69
ag759
ag585
ag764
ag101
ag259
ag651
ag899
ag676
ag398
ag112
ag1030
ag161
ag761
ag344
ag623
ag21
ag391
ag357
ag520
ag800
ag76
ag716
ag740
ag537
ag795
ag220
ag957
ag638
ag771
ag538
ag758
ag538
ag148
ag998
ag77
ag407
ag860
ag161
ag469
ag376
ag300
ag523
ag666
ag744
ag435
ag52
ag270
ag1069
ag53
ag887
ag773
ag144
ag507
ag921
ag70
ag173
ag994
ag545
ag25
ag624
ag1017
ag907
ag401
ag1037
ag967
ag878
ag426
ag482
ag646
ag476
ag589
ag499
ag1067
ag627
ag272
ag741
ag636
ag4
ag531
ag14
ag743
ag401
ag845
ag234
ag805
ag685
ag561
ag349
ag905
ag739
ag777
ag265
ag746
ag929
ag913
ag303
ag688
ag607
ag292
ag760
ag416
ag551
ag817
ag988
ag776
ag590
ag201
ag728
ag5
ag956
ag996
ag931
ag373
ag663
ag537
ag934
ag713
ag890
ag731
ag573
ag562
ag222
ag167
ag63
ag630
ag82
ag919
ag533
ag114
ag91
ag634
ag834
ag941
ag786
ag728
ag873
ag957
ag828
ag695
ag324
ag1000
ag455
ag633
ag461
ag109
ag114
ag264
ag998
ag499
ag988
ag477
ag247
ag502
ag988
ag440
ag609
ag442
ag828
ag1069
ag149
ag165
ag682
ag396
ag877
ag29
ag759
ag844
ag122
ag218
ag1019
ag399
ag75
ag1037
ag639
ag328
ag79
ag1072
ag458
ag915
ag671
ag796
ag590
ag150
ag15
ag64
ag820
ag992
ag906
ag104
ag790
ag813
ag31
ag749
ag229
ag230
ag1033
ag718
ag608
ag394
ag521
ag839
ag608
ag1066
ag941
ag234
ag718
ag490
ag867
ag959
ag986
ag666
ag996
ag45
ag126
ag223
ag379
ag145
ag101
ag495
ag767
ag489
ag581
ag567
ag24
ag454
ag172
ag843
ag274
ag92
ag1035
ag268
ag735
ag790
ag542
ag199
ag784
ag734
ag908
ag230
ag662
ag283
ag554
ag505
ag873
ag83
ag64
ag842
ag445
ag825
ag118
ag111
ag870
ag727
ag822
ag345
ag672
ag866
ag439
ag128
ag154
ag980
ag571
ag942
ag467
ag351
ag21
ag553
ag15
ag655
ag680
ag533
ag329
ag40
ag627
ag440
ag497
ag159
ag983
ag919
ag353
ag630
ag795
ag718
ag207
ag368
ag460
ag749
ag701
ag311
ag1026
ag99
ag897
ag479
ag899
ag1043
ag551
ag734
ag837
ag452
ag370
ag212
ag942
ag540
ag951
ag1019
ag641
ag81
ag326
ag757
ag436
ag252
ag884
ag49
ag957
ag494
ag177
ag969
ag899
ag1006
ag840
ag872
ag194
ag952
ag718
ag433
ag768
ag584
ag432
ag57
ag799
ag704
ag1054
ag415
ag764
ag956
ag657
ag897
ag994
ag846
ag657
ag876
ag656
ag5
ag830
ag198
ag1056
ag635
ag329
ag916
ag138
ag23
ag228
ag871
ag1042
ag35
ag588
ag1054
ag1045
ag412
ag215
ag1008
ag866
ag1064
ag388
ag285
ag922
ag435
ag70
ag1031
ag469
ag129
ag359
ag234
ag851
ag849
ag536
ag968
ag296
ag725
ag823
ag472
ag896
ag116
ag758
ag1003
ag23
ag1048
ag657
ag257
ag183
ag334
ag464
ag165
ag1008
ag73
ag663
ag405
ag160
ag240
ag206
ag850
ag935
ag349
ag654
ag920
ag413
ag98
ag114
ag252
ag196
ag580
ag481
ag297
ag877
ag14
ag1043
ag1030
ag314
ag282
ag116
ag601
ag78
ag671
ag684
ag956
ag753
ag637
ag1016
ag1063
ag800
ag100
ag320
ag971
ag566
ag55
ag1052
ag952
ag796
ag806
ag434
ag878
ag672
ag871
ag700
ag885
ag900
ag416
ag252
ag973
ag730
ag111
ag880
ag660
ag386
ag1001
ag517
ag768
ag845
ag107
ag557
ag1072
ag22
ag192
ag483
ag277
ag36
ag583
ag893
ag127
ag753
ag348
ag586
ag918
ag787
ag348
ag16
ag270
ag418
ag605
ag183
ag375
ag536
ag279
ag460
ag356
ag231
ag42
ag530
ag320
ag962
ag318
ag898
ag97
ag345
ag939
ag571
ag355
ag872
ag864
ag1043
ag252
ag370
ag723
ag908
ag711
ag394
ag795
ag435
ag163
ag872
ag2
ag576
ag541
ag96
ag787
ag1061
ag907
ag694
ag468
ag726
ag83
ag1004
ag914
ag959
ag832
ag119
ag522
ag732
ag287
ag357
ag222
ag928
ag992
ag216
ag111
ag106
ag823
ag347
ag594
ag998
ag655
ag574
ag255
ag649
ag72
ag556
ag856
ag1015
ag196
ag57
ag654
ag895
ag370
ag236
ag898
ag483
ag308
ag873
ag961
ag615
ag207
ag783
ag345
ag355
ag807
ag209
ag271
ag327
ag709
ag489
ag745
ag922
ag839
ag1052
ag874
ag773
ag502
ag883
ag397
ag483
ag10
ag176
ag957
ag823
ag409
ag944
ag568
ag1073
ag648
ag86
ag911
ag254
ag764
ag1042
ag138
ag132
ag783
ag599
ag834
ag56
ag483
ag110
ag763
ag34
ag938
ag969
ag576
ag448
ag1068
ag1014
ag321
ag801
ag846
ag960
ag972
ag237
ag482
ag944
ag527
ag705
ag313
ag471
ag107
ag833
ag929
ag603
ag181
ag734
ag573
ag806
ag709
ag122
ag375
ag708
ag774
ag578
ag216
ag345
ag1054
ag95
ag770
ag696
ag866
ag327
ag314
ag945
ag546
ag582
ag242
ag818
ag809
ag311
ag822
ag1028
ag75
ag11
ag422
ag312
ag858
ag1039
ag255
ag19
ag129
ag733
ag689
ag243
ag264
ag40
ag933
ag540
ag126
ag519
ag472
ag277
ag1056
ag252
ag281
ag427
ag240
ag703
ag1020
ag36
ag628
ag2
ag860
ag412
ag864
ag1053
ag797
ag807
ag469
ag613
ag774
ag843
ag1071
ag18
ag853
ag784
ag710
ag384
ag70
ag521
ag1054
ag631
ag481
ag786
ag854
ag575
ag93
ag256
ag1009
ag177
ag723
ag827
ag20
ag623
ag232
ag151
ag7
ag218
ag995
ag366
ag831
ag833
ag471
ag1061
ag247
ag220
ag480
ag300
ag1008
ag470
ag120
ag947
ag241
ag952
ag862
ag472
ag869
ag1071
ag238
ag547
ag513
ag313
ag95
ag663
ag872
ag429
ag928
ag1064
ag61
ag262
ag150
ag634
ag787
ag405
ag84
ag458
ag869
ag49
ag112
ag1010
ag448
ag1035
ag79
ag575
ag951
ag412
ag114
ag282
ag447
ag441
ag620
ag785
ag289
ag871
ag480
ag848
ag433
ag368
ag793
ag215
ag565
ag458
ag179
ag688
ag312
ag994
ag442
ag951
ag95
ag692
ag426
ag955
ag601
ag76
ag98
ag530
ag705
ag948
ag687
ag152
ag393
ag928
ag212
ag694
ag496
ag864
ag188
ag275
ag263
ag712
ag969
ag694
ag1007
ag519
ag262
ag23
ag980
ag952
ag196
ag732
ag681
ag259
ag170
ag535
ag199
ag71
ag804
ag467
ag434
ag173
ag614
ag228
ag1068
ag984
ag435
ag848
ag751
ag529
ag630
ag164
ag281
ag84
ag129
ag510
ag1061
ag703
ag581
ag121
ag865
ag458
ag342
ag144
ag803
ag60
ag771
ag154
ag605
ag612
ag536
ag680
ag879
ag940
ag41
ag177
ag642
ag469
ag230
ag935
ag608
ag198
ag127
ag478
ag925
ag13
ag769
ag224
ag529
ag150
ag757
ag265
ag684
ag464
ag434
ag287
ag775
ag129
ag57
ag958
ag386
ag1057
ag628
ag245
ag14
ag1065
ag206
ag511
ag238
ag743
ag386
ag12
ag242
ag363
ag154
ag105
ag1012
ag374
ag608
ag614
ag117
ag85
ag305
ag1045
ag502
ag30
ag409
ag443
ag32
ag571
ag508
ag315
ag144
ag308
ag212
ag21
ag490
ag487
ag15
ag74
ag445
ag689
ag131
ag710
ag189
ag1073
ag753
ag45
ag690
ag1045
ag811
ag117
ag128
ag387
ag828
ag850
ag128
ag10
ag148
ag894
ag170
ag1020
ag492
ag883
ag812
ag606
ag277
ag960
ag691
ag374
ag281
ag112
ag437
ag656
ag924
ag120
ag681
ag470
ag545
ag681
ag508
ag360
ag357
ag737
ag443
ag339
ag379
ag131
ag731
ag516
ag930
ag247
ag249
ag233
ag819
ag911
ag871
ag1049
ag478
ag663
ag749
ag927
ag51
ag846
ag535
ag854
ag596
ag778
ag42
ag387
ag48
ag487
ag657
ag169
ag828
ag455
ag119
ag67
ag217
ag960
ag580
ag957
ag662
ag823
ag547
ag32
ag748
ag967
ag353
ag370
ag429
ag215
ag548
ag97
ag682
ag51
ag747
ag269
ag524
ag886
ag559
ag590
ag740
ag655
ag707
ag40
ag268
ag2
ag287
ag783
ag260
ag9
ag465
ag848
ag361
ag286
ag550
ag547
ag1071
ag805
ag1028
ag183
ag765
ag889
ag1010
ag217
ag334
ag467
ag718
ag235
ag1007
ag646
ag88
ag735
ag407
ag944
ag927
ag659
ag434
ag1039
ag389
ag668
ag310
ag404
ag348
ag361
ag484
ag541
ag456
ag577
ag312
ag156
ag828
ag649
ag649
ag986
ag505
ag690
ag429
ag687
ag932
ag433
ag67
ag544
ag447
ag862
ag60
ag557
ag338
ag774
ag818
ag813
ag424
ag132
ag1064
ag652
ag775
ag550
ag702
ag448
ag1058
ag869
ag350
ag397
ag166
ag424
ag785
ag36
ag196
ag882
ag54
ag518
ag329
ag67
ag29
ag90
ag592
ag905
ag546
ag851
ag935
ag664
ag237
ag1019
ag577
ag755
ag22
ag527
ag215
ag825
ag196
ag1060
ag296
ag569
ag405
ag171
ag321
ag402
ag275
ag849
ag661
ag1028
ag534
ag270
ag903
ag566
ag624
ag847
ag99
ag655
ag739
ag404
ag1053
ag780
ag817
ag69
ag20
ag781
ag458
ag659
ag1066
ag797
ag948
ag629
ag726
ag642
ag557
ag19
ag421
ag424
ag1027
ag978
ag605
ag31
ag123
ag873
ag923
ag831
ag808
ag760
ag57
ag847
ag471
ag434
ag768
ag617
ag935
ag1006
ag971
ag362
ag864
ag232
ag398
ag638
ag502
ag875
ag955
ag281
ag187
ag34
ag918
ag3
ag376
ag248
ag166
ag672
ag198
ag646
ag412
ag876
ag618
ag922
ag875
ag919
ag861
ag872
ag958
ag977
ag349
ag887
ag554
ag1027
ag969
ag180
ag450
ag922
ag460
ag906
ag794
ag903
ag61
ag178
ag540
ag671
ag175
ag577
ag354
ag1019
ag671
ag904
ag563
ag336
ag577
ag333
ag629
ag975
ag272
ag209
ag591
ag273
ag84
ag805
ag881
ag150
ag191
ag525
ag984
ag356
ag893
ag651
ag176
ag928
ag505
ag914
ag689
ag356
ag570
ag500
ag877
ag725
ag889
ag286
ag1043
ag400
ag514
ag442
ag999
ag56
ag601
ag282
ag152
ag737
ag352
ag622
ag770
ag918
ag477
ag405
ag521
ag120
ag46
ag259
ag653
ag899
ag71
ag1033
ag590
ag415
ag497
ag891
ag1040
ag567
ag650
ag26
ag294
ag240
ag631
ag1049
ag657
ag854
ag5
ag381
ag962
ag984
ag461
ag650
ag259
ag505
ag584
ag1032
ag290
ag155
ag60
ag803
ag328
ag340
ag685
ag781
ag489
ag135
ag1072
ag342
ag416
ag488
ag908
ag299
ag482
ag552
ag82
ag87
ag272
ag943
ag503
ag917
ag291
ag135
ag950
ag609
ag821
ag956
ag1074
ag750
ag893
ag712
ag76
ag165
ag1050
ag768
ag996
ag61
ag744
ag857
ag109
ag451
ag740
ag376
ag33
ag1021
ag1040
ag1002
ag949
ag667
ag497
ag646
ag590
ag999
ag94
ag342
ag894
ag21
ag945
ag531
ag448
ag700
ag746
ag180
ag165
ag359
ag564
ag796
ag250
ag393
ag348
ag814
ag830
ag367
ag120
ag472
ag332
ag916
ag889
ag427
ag562
ag164
ag463
ag646
ag234
ag544
ag332
ag629
ag339
ag802
ag826
ag105
ag321
ag149
ag349
ag99
ag971
ag778
ag897
ag720
ag942
ag826
ag904
ag409
ag519
ag1001
ag104
ag615
ag25
ag809
ag16
ag769
ag246
ag821
ag909
ag1013
ag956
ag491
ag237
ag176
ag668
ag129
ag467
ag404
ag399
ag733
ag466
ag562
ag224
ag1044
ag678
ag455
ag869
ag80
ag688
ag706
ag1073
ag853
ag822
ag689
ag989
ag244
ag450
ag406
ag799
ag217
ag379
ag453
ag756
ag630
ag591
ag981
ag412
ag445
ag422
ag125
ag299
ag345
ag355
ag768
ag753
ag811
ag775
ag170
ag610
ag632
ag490
ag903
ag112
ag72
ag325
ag836
ag231
ag961
ag405
ag745
ag1025
ag388
ag324
ag1031
ag964
ag917
ag516
ag596
ag820
ag909
ag423
ag320
ag5
ag806
ag830
ag6
ag466
ag153
ag174
ag164
ag721
ag714
ag970
ag675
ag201
ag1023
ag140
ag692
ag257
ag900
ag271
ag406
ag594
ag986
ag798
ag1074
ag109
a.