(lp1
(lp2
S'0.147405660377358'
p3
aa(lp4
S'0.000052902386263'
p5
aa(lp6
S'0.001950325216730'
p7
aa(lp8
S'0.000300460455648'
p9
aa(lp10
S'0.011876625613131'
p11
aa(lp12
S'0.008741793641219'
p13
aa(lp14
S'0.000987664075695'
p15
aa(lp16
S'1.114827201783724'
p17
aa(lp18
S'0.000001000000001'
p19
aa(lp20
S'0.056756910153811'
p21
aa(lp22
S'0.000834716179805'
p23
aa(lp24
S'0.000001000000001'
p25
aa(lp26
S'1.114827201783724'
p27
aa(lp28
S'0.006960492246012'
p29
aa(lp30
S'0.005227965432693'
p31
aa(lp32
S'6.849315068493151'
p33
aa(lp34
S'0.142734798743934'
p35
aa(lp36
S'0.364431486880466'
p37
aa(lp38
S'0.327868852459016'
p39
aa(lp40
S'0.001967965458270'
p41
aa(lp42
S'0.358037952022914'
p43
aa(lp44
S'0.002330567726298'
p45
aa(lp46
S'0.015454756201221'
p47
aa(lp48
S'0.000123927592578'
p49
aa(lp50
S'0.026267402153927'
p51
aa(lp52
S'1.052631578947368'
p53
aa(lp54
S'0.185048112509252'
p55
aa(lp56
S'14.285714285714286'
p57
aa(lp58
S'0.000876472583499'
p59
aa(lp60
S'0.000001000000001'
p61
aa(lp62
S'1.869158878504673'
p63
aa(lp64
S'0.000225678004429'
p65
aa(lp66
S'0.000001000000001'
p67
aa(lp68
S'83.333333333333329'
p69
aa(lp70
S'0.122129946262824'
p71
aa(lp72
S'0.244977951984321'
p73
aa(lp74
S'0.609384521633150'
p75
aa(lp76
S'0.001015816259155'
p77
aa(lp78
S'0.000001000000001'
p79
aa(lp80
S'0.000284873420769'
p81
aa(lp82
S'2.754820936639118'
p83
aa(lp84
S'6.944444444444445'
p85
aa(lp86
S'0.000079583555172'
p87
aa(lp88
S'0.000001000000001'
p89
aa(lp90
S'0.000176074472459'
p91
aa(lp92
S'8.403361344537815'
p93
aa(lp94
S'5.917159763313609'
p95
aa(lp96
S'2.237136465324385'
p97
aa(lp98
S'0.010437105999249'
p99
aa(lp100
S'0.000053585671834'
p101
aa(lp102
S'0.241604252234839'
p103
aa(lp104
S'0.000189170231264'
p105
aa(lp106
S'0.649350649350649'
p107
aa(lp108
S'10.000000000000000'
p109
aa(lp110
S'0.358037952022914'
p111
aa(lp112
S'9.259259259259260'
p113
aa(lp114
S'0.001950325216730'
p115
aa(lp116
S'0.027528491989209'
p117
aa(lp118
S'0.000001000000001'
p119
aa(lp120
S'0.000001000000001'
p121
aa(lp122
S'6.944444444444445'
p123
aa(lp124
S'0.000001000000001'
p125
aa(lp126
S'0.004415439910278'
p127
aa(lp128
S'12.195121951219512'
p129
aa(lp130
S'0.000001000000001'
p131
aa(lp132
S'0.575373993095512'
p133
aa(lp134
S'0.000001000000001'
p135
aa(lp136
S'0.000133153753305'
p137
aa(lp138
S'0.241604252234839'
p139
aa(lp140
S'0.161238310222509'
p141
aa(lp142
S'0.000001000000001'
p143
aa(lp144
S'0.099373944151843'
p145
aa(lp146
S'0.000001000000001'
p147
aa(lp148
S'0.019062142584827'
p149
aa(lp150
S'0.000001000000001'
p151
aa(lp152
S'0.006724678224147'
p153
aa(lp154
S'0.000001000000001'
p155
aa(lp156
S'0.000001000000001'
p157
aa(lp158
S'0.045846323124885'
p159
aa.