(lp1
(lp2
(lp3
I92
aI50
aaa(lp4
(lp5
I89
aI47
aaa(lp6
(lp7
I94
aI72
aaa(lp8
(lp9
I92
aI61
aaa(lp10
(lp11
I60
aI3
aaa(lp12
(lp13
I86
aI14
aaa(lp14
(lp15
I60
aI2
aaa(lp16
(lp17
I93
aI63
aaa(lp18
(lp19
I90
aI48
aaa(lp20
(lp21
I82
aI8
aaa(lp22
(lp23
I94
aI65
aaa(lp24
(lp25
I94
aI64
aaa(lp26
(lp27
I94
aI64
aaa(lp28
(lp29
I64
aI7
aaa(lp30
(lp31
I93
aI62
aaa(lp32
(lp33
I61
aI4
aaa(lp34
(lp35
I66
aI10
aaa(lp36
(lp37
I93
aI58
aaa(lp38
(lp39
I84
aI10
aaa(lp40
(lp41
I88
aI11
aaa(lp42
(lp43
I80
aI9
aaa(lp44
(lp45
I68
aI10
aaa(lp46
(lp47
I92
aI60
aaa(lp48
(lp49
I93
aI48
aaa(lp50
(lp51
I91
aI11
aaa(lp52
(lp53
I85
aI11
aaa(lp54
(lp55
I68
aI10
aaa(lp56
(lp57
I60
aI2
aaa(lp58
(lp59
I60
aI3
aaa(lp60
(lp61
I90
aI56
aaa(lp62
(lp63
I93
aI61
aaa(lp64
(lp65
I60
aI3
aaa(lp66
(lp67
I68
aI10
aaa(lp68
(lp69
I91
aI14
aaa(lp70
(lp71
I68
aI10
aaa(lp72
(lp73
I92
aI58
aaa(lp74
(lp75
I62
aI5
aaa(lp76
(lp77
I93
aI63
aaa(lp78
(lp79
I94
aI65
aaa(lp80
(lp81
I78
aI8
aaa(lp82
(lp83
I93
aI73
aaa(lp84
(lp85
I61
aI4
aaa(lp86
(lp87
I91
aI56
aaa(lp88
(lp89
I95
aI53
aaa(lp90
(lp91
I95
aI22
aaa(lp92
(lp93
I94
aI69
aaa(lp94
(lp95
I90
aI19
aaa(lp96
(lp97
I62
aI4
aaa(lp98
(lp99
I76
aI7
aaa(lp100
(lp101
I80
aI11
aaa(lp102
(lp103
I50
aI5
aaa(lp104
(lp105
I75
aI8
aaa(lp106
(lp107
I90
aI20
aaa(lp108
(lp109
I92
aI50
aaa(lp110
(lp111
I92
aI60
aaa(lp112
(lp113
I94
aI72
aaa(lp114
(lp115
I64
aI5
aaa(lp116
(lp117
I93
aI23
aaa(lp118
(lp119
I94
aI65
aaa(lp120
(lp121
I64
aI14
aaa(lp122
(lp123
I94
aI25
aaa(lp124
(lp125
I83
aI12
aaa(lp126
(lp127
I67
aI11
aaa(lp128
(lp129
I69
aI12
aaa(lp130
(lp131
I78
aI8
aaa(lp132
(lp133
I90
aI11
aaa(lp134
(lp135
I63
aI5
aaa(lp136
(lp137
I94
aI60
aaa(lp138
(lp139
I93
aI50
aaa(lp140
(lp141
I93
aI50
aaa(lp142
(lp143
I68
aI10
aaa(lp144
(lp145
I44
aI9
aaa(lp146
(lp147
I90
aI51
aaa(lp148
(lp149
I90
aI56
aaa(lp150
(lp151
I86
aI46
aaa(lp152
(lp153
I68
aI10
aaa(lp154
(lp155
I95
aI62
aaa(lp156
(lp157
I96
aI37
aaa(lp158
(lp159
I76
aI7
aaa(lp160
(lp161
I93
aI51
aaa(lp162
(lp163
I68
aI10
aaa(lp164
(lp165
I94
aI69
aaa(lp166
(lp167
I88
aI28
aaa(lp168
(lp169
I93
aI60
aaa(lp170
(lp171
I94
aI63
aaa(lp172
(lp173
I93
aI51
aaa(lp174
(lp175
I62
aI5
aaa(lp176
(lp177
I94
aI74
aaa(lp178
(lp179
I81
aI9
aaa(lp180
(lp181
I92
aI54
aaa(lp182
(lp183
I91
aI56
aaa(lp184
(lp185
I80
aI8
aaa(lp186
(lp187
I90
aI59
aaa(lp188
(lp189
I90
aI46
aaa(lp190
(lp191
I96
aI25
aaa(lp192
(lp193
I93
aI59
aaa(lp194
(lp195
I90
aI22
aaa(lp196
(lp197
I92
aI58
aaa(lp198
(lp199
I60
aI2
aaa(lp200
(lp201
I60
aI3
aaa(lp202
(lp203
I92
aI54
aaa(lp204
(lp205
I92
aI58
aaa(lp206
(lp207
I80
aI9
aaa(lp208
(lp209
I94
aI69
aaa(lp210
(lp211
I66
aI5
aaa(lp212
(lp213
I93
aI49
aaa(lp214
(lp215
I63
aI4
aaa(lp216
(lp217
I68
aI10
aaa(lp218
(lp219
I68
aI10
aaa(lp220
(lp221
I68
aI10
aaa(lp222
(lp223
I94
aI25
aaa(lp224
(lp225
I54
aI12
aaa(lp226
(lp227
I93
aI20
aaa(lp228
(lp229
I92
aI50
aaa(lp230
(lp231
I92
aI55
aaa(lp232
(lp233
I93
aI19
aaa(lp234
(lp235
I95
aI55
aaa(lp236
(lp237
I68
aI10
aaa(lp238
(lp239
I92
aI60
aaa(lp240
(lp241
I91
aI15
aaa(lp242
(lp243
I72
aI9
aaa(lp244
(lp245
I46
aI10
aaa(lp246
(lp247
I90
aI13
aaa(lp248
(lp249
I73
aI8
aaa(lp250
(lp251
I85
aI9
aaa(lp252
(lp253
I63
aI6
aaa(lp254
(lp255
I70
aI19
aaa(lp256
(lp257
I93
aI45
aaa(lp258
(lp259
I68
aI10
aaa(lp260
(lp261
I82
aI9
aaa(lp262
(lp263
I93
aI63
aaa(lp264
(lp265
I94
aI63
aaa(lp266
(lp267
I95
aI80
aaa(lp268
(lp269
I60
aI2
aaa(lp270
(lp271
I93
aI19
aaa(lp272
(lp273
I92
aI55
aaa(lp274
(lp275
I94
aI69
aaa(lp276
(lp277
I94
aI15
aaa(lp278
(lp279
I94
aI59
aaa(lp280
(lp281
I70
aI6
aaa(lp282
(lp283
I94
aI59
aaa(lp284
(lp285
I95
aI64
aaa(lp286
(lp287
I86
aI35
aaa(lp288
(lp289
I94
aI65
aaa(lp290
(lp291
I60
aI3
aaa(lp292
(lp293
I48
aI30
aaa(lp294
(lp295
I65
aI5
aaa(lp296
(lp297
I94
aI52
aaa(lp298
(lp299
I74
aI8
aaa(lp300
(lp301
I77
aI10
aaa(lp302
(lp303
I74
aI12
aaa(lp304
(lp305
I69
aI12
aaa(lp306
(lp307
I63
aI6
aaa(lp308
(lp309
I94
aI44
aaa(lp310
(lp311
I75
aI8
aaa(lp312
(lp313
I94
aI60
aaa(lp314
(lp315
I85
aI11
aaa(lp316
(lp317
I93
aI56
aaa(lp318
(lp319
I94
aI74
aaa(lp320
(lp321
I61
aI4
aaa(lp322
(lp323
I66
aI7
aaa(lp324
(lp325
I69
aI7
aaa(lp326
(lp327
I71
aI6
aaa(lp328
(lp329
I66
aI9
aaa(lp330
(lp331
I93
aI12
aaa(lp332
(lp333
I93
aI51
aaa(lp334
(lp335
I70
aI6
aaa(lp336
(lp337
I92
aI62
aaa(lp338
(lp339
I90
aI49
aaa(lp340
(lp341
I92
aI48
aaa(lp342
(lp343
I90
aI50
aaa(lp344
(lp345
I70
aI6
aaa(lp346
(lp347
I93
aI64
aaa(lp348
(lp349
I92
aI48
aaa(lp350
(lp351
I93
aI54
aaa(lp352
(lp353
I92
aI69
aaa(lp354
(lp355
I95
aI80
aaa(lp356
(lp357
I92
aI53
aaa(lp358
(lp359
I68
aI10
aaa(lp360
(lp361
I83
aI42
aaa(lp362
(lp363
I92
aI61
aaa(lp364
(lp365
I68
aI10
aaa(lp366
(lp367
I78
aI11
aaa(lp368
(lp369
I90
aI33
aaa(lp370
(lp371
I91
aI53
aaa(lp372
(lp373
I89
aI21
aaa(lp374
(lp375
I93
aI55
aaa(lp376
(lp377
I68
aI10
aaa(lp378
(lp379
I93
aI49
aaa(lp380
(lp381
I93
aI49
aaa(lp382
(lp383
I73
aI11
aaa(lp384
(lp385
I68
aI6
aaa(lp386
(lp387
I95
aI73
aaa(lp388
(lp389
I93
aI53
aaa(lp390
(lp391
I60
aI2
aaa(lp392
(lp393
I76
aI8
aaa(lp394
(lp395
I95
aI73
aaa(lp396
(lp397
I93
aI47
aaa(lp398
(lp399
I92
aI60
aaa(lp400
(lp401
I71
aI7
aaa(lp402
(lp403
I94
aI64
aaa(lp404
(lp405
I63
aI6
aaa(lp406
(lp407
I91
aI60
aaa(lp408
(lp409
I81
aI10
aaa(lp410
(lp411
I61
aI6
aaa(lp412
(lp413
I90
aI58
aaa(lp414
(lp415
I91
aI60
aaa(lp416
(lp417
I68
aI10
aaa(lp418
(lp419
I94
aI64
aaa(lp420
(lp421
I50
aI6
aaa(lp422
(lp423
I62
aI4
aaa(lp424
(lp425
I68
aI10
aaa(lp426
(lp427
I95
aI66
aaa(lp428
(lp429
I93
aI46
aaa(lp430
(lp431
I94
aI15
aaa(lp432
(lp433
I93
aI50
aaa(lp434
(lp435
I90
aI11
aaa(lp436
(lp437
I68
aI10
aaa(lp438
(lp439
I95
aI54
aaa(lp440
(lp441
I73
aI7
aaa(lp442
(lp443
I94
aI53
aaa(lp444
(lp445
I92
aI55
aaa(lp446
(lp447
I91
aI50
aaa(lp448
(lp449
I80
aI21
aaa(lp450
(lp451
I81
aI15
aaa(lp452
(lp453
I92
aI57
aaa(lp454
(lp455
I92
aI46
aaa(lp456
(lp457
I94
aI64
aaa(lp458
(lp459
I93
aI23
aaa(lp460
(lp461
I93
aI52
aaa(lp462
(lp463
I95
aI62
aaa(lp464
(lp465
I91
aI50
aaa(lp466
(lp467
I93
aI51
aaa(lp468
(lp469
I90
aI11
aaa(lp470
(lp471
I93
aI46
aaa(lp472
(lp473
I93
aI55
aaa(lp474
(lp475
I91
aI33
aaa(lp476
(lp477
I78
aI37
aaa(lp478
(lp479
I93
aI51
aaa(lp480
(lp481
I93
aI35
aaa(lp482
(lp483
I83
aI40
aaa(lp484
(lp485
I85
aI11
aaa(lp486
(lp487
I89
aI45
aaa(lp488
(lp489
I93
aI55
aaa(lp490
(lp491
I92
aI29
aaa(lp492
(lp493
I54
aI10
aaa(lp494
(lp495
I88
aI11
aaa(lp496
(lp497
I90
aI50
aaa(lp498
(lp499
I96
aI59
aaa(lp500
(lp501
I92
aI18
aaa(lp502
(lp503
I52
aI12
aaa(lp504
(lp505
I94
aI61
aaa(lp506
(lp507
I92
aI50
aaa(lp508
(lp509
I94
aI63
aaa(lp510
(lp511
I63
aI4
aaa(lp512
(lp513
I89
aI50
aaa(lp514
(lp515
I94
aI64
aaa(lp516
(lp517
I76
aI7
aaa(lp518
(lp519
I90
aI47
aaa(lp520
(lp521
I94
aI27
aaa(lp522
(lp523
I78
aI8
aaa(lp524
(lp525
I92
aI16
aaa(lp526
(lp527
I94
aI64
aaa(lp528
(lp529
I92
aI54
aaa(lp530
(lp531
I93
aI63
aaa(lp532
(lp533
I64
aI9
aaa(lp534
(lp535
I90
aI49
aaa(lp536
(lp537
I84
aI11
aaa(lp538
(lp539
I79
aI37
aaa(lp540
(lp541
I88
aI12
aaa(lp542
(lp543
I82
aI12
aaa(lp544
(lp545
I78
aI9
aaa(lp546
(lp547
I93
aI51
aaa(lp548
(lp549
I94
aI51
aaa(lp550
(lp551
I93
aI56
aaa(lp552
(lp553
I93
aI60
aaa(lp554
(lp555
I63
aI6
aaa(lp556
(lp557
I96
aI23
aaa(lp558
(lp559
I91
aI59
aaa(lp560
(lp561
I61
aI3
aaa(lp562
(lp563
I94
aI49
aaa(lp564
(lp565
I92
aI61
aaa(lp566
(lp567
I90
aI11
aaa(lp568
(lp569
I90
aI49
aaa(lp570
(lp571
I93
aI50
aaa(lp572
(lp573
I92
aI12
aaa(lp574
(lp575
I68
aI7
aaa(lp576
(lp577
I94
aI59
aaa(lp578
(lp579
I92
aI35
aaa(lp580
(lp581
I91
aI48
aaa(lp582
(lp583
I92
aI50
aaa(lp584
(lp585
I94
aI54
aaa(lp586
(lp587
I92
aI47
aaa(lp588
(lp589
I93
aI63
aaa(lp590
(lp591
I90
aI12
aaa(lp592
(lp593
I87
aI13
aaa(lp594
(lp595
I83
aI9
aaa(lp596
(lp597
I62
aI5
aaa(lp598
(lp599
I78
aI8
aaa(lp600
(lp601
I73
aI11
aaa(lp602
(lp603
I70
aI20
aaa(lp604
(lp605
I86
aI38
aaa(lp606
(lp607
I62
aI4
aaa(lp608
(lp609
I68
aI10
aaa(lp610
(lp611
I89
aI12
aaa(lp612
(lp613
I68
aI10
aaa(lp614
(lp615
I61
aI3
aaa(lp616
(lp617
I95
aI27
aaa(lp618
(lp619
I93
aI21
aaa(lp620
(lp621
I91
aI56
aaa(lp622
(lp623
I92
aI61
aaa(lp624
(lp625
I94
aI64
aaa(lp626
(lp627
I66
aI5
aaa(lp628
(lp629
I88
aI44
aaa.